Certificate:
    Data:
        Version: 3 (0x2)
        Serial Number:
            4c:f5:06:ed:a1:d7:93:59:4a:f1:30:95:66:33:27:15:c5:4e:7d:c2
        Signature Algorithm: sha256WithRSAEncryption
        Issuer: C = US, ST = CA, L = Mountain View, O = "Aerospike, Inc.", OU = Engineering Test, CN = Root CA
        Validity
            Not Before: May 28 18:02:48 2021 GMT
            Not After : May 28 18:02:48 2041 GMT
        Subject: C = US, ST = CA, L = Mountain View, O = "Aerospike, Inc.", OU = Engineering Test, CN = Root CA
        Subject Public Key Info:
            Public Key Algorithm: rsaEncryption
                RSA Public-Key: (2048 bit)
                Modulus:
                    00:bf:6c:fb:23:f9:e9:a4:6b:62:b3:af:b9:df:e1:
                    01:e8:cc:87:3b:9f:32:0b:21:70:b7:34:39:33:3e:
                    77:cc:43:b9:5d:2b:63:fe:2b:21:d5:92:f4:92:35:
                    49:b4:92:fc:00:dc:5d:9f:46:1d:f6:75:04:1c:87:
                    c4:0d:3c:16:30:44:62:41:d9:a1:e9:ee:8d:6a:f6:
                    92:35:e3:05:0d:2b:e1:56:29:d8:68:ec:bd:e9:26:
                    36:09:54:2f:39:69:6e:93:d7:48:27:1d:fc:d1:5b:
                    b8:00:10:05:c0:01:9b:34:91:38:8a:c2:b5:2f:4e:
                    6b:2b:4a:99:c4:52:48:5e:da:52:80:cd:b5:fc:92:
                    7e:ec:ca:d5:45:d3:bc:37:71:15:09:cc:6d:5b:14:
                    04:c9:35:00:ce:e3:6c:e8:a1:b5:1a:15:14:47:47:
                    ff:d2:d5:df:21:54:c5:de:61:1c:c4:20:07:82:9c:
                    44:60:b7:b0:90:89:79:c8:23:fc:0d:a7:d7:93:0c:
                    fe:a5:84:6e:c1:49:a7:53:d6:47:27:31:05:62:25:
                    2c:78:f2:7a:3a:d2:21:9b:15:65:ac:48:90:92:8f:
                    68:2b:37:b8:75:78:7a:e0:86:1f:16:1f:8c:bb:68:
                    ec:00:3b:1b:6a:40:19:44:08:71:36:c3:0c:42:00:
                    eb:d5
                Exponent: 65537 (0x10001)
        X509v3 extensions:
            X509v3 Key Usage: critical
                Digital Signature, Certificate Sign, CRL Sign
            X509v3 Basic Constraints: critical
                CA:TRUE
            X509v3 Subject Key Identifier:
                5C:D4:00:48:38:47:42:1F:3A:39:14:BC:D4:D5:B7:84:B8:83:44:CD
            X509v3 Authority Key Identifier:
                keyid:5C:D4:00:48:38:47:42:1F:3A:39:14:BC:D4:D5:B7:84:B8:83:44:CD

    Signature Algorithm: sha256WithRSAEncryption
         4d:63:88:6d:38:9f:0f:cc:19:c8:40:6a:6f:5d:74:a8:0b:dc:
         1d:b4:85:9a:f6:8e:8c:10:df:f0:57:ac:df:29:89:82:91:c1:
         94:d2:e8:ec:9d:4d:80:2a:b6:01:bd:b0:0c:6f:54:62:22:81:
         60:65:be:c3:22:d4:ae:57:25:c2:94:9c:1f:f4:65:bd:3e:8b:
         09:0d:97:b6:b0:43:2a:e8:67:03:11:05:c1:d4:52:29:42:b9:
         7e:4e:2a:b8:d1:53:67:56:5f:b5:4d:28:58:02:3b:d3:5c:89:
         0e:ae:1f:ce:22:1e:17:fe:0c:f7:c3:55:1c:9b:ce:1b:2c:d6:
         20:06:09:09:19:e8:e4:db:15:3b:d8:e1:fe:1c:21:4a:51:45:
         9a:f2:3f:27:28:0c:ac:dd:b4:c9:0b:14:c4:65:17:64:7c:60:
         21:0f:56:69:59:af:4e:c6:77:cc:17:76:e6:00:66:2f:b3:d5:
         3b:07:a9:8c:1b:a5:76:4a:9c:7b:2f:a4:86:7a:e3:08:06:b7:
         ca:05:39:72:85:0a:44:13:40:80:7b:f0:0a:69:b8:cd:b6:6b:
         4a:ec:ea:74:28:8b:4f:3d:83:ab:32:e7:3a:f3:1b:95:e2:d9:
         f5:4a:86:34:20:5c:37:6a:fc:d7:4b:40:b6:67:ab:82:95:ce:
         3f:08:07:99
-----BEGIN CERTIFICATE-----
MIID4zCCAsugAwIBAgIUTPUG7aHXk1lK8TCVZjMnFcVOfcIwDQYJKoZIhvcNAQEL
BQAweTELMAkGA1UEBhMCVVMxCzAJBgNVBAgMAkNBMRYwFAYDVQQHDA1Nb3VudGFp
biBWaWV3MRgwFgYDVQQKDA9BZXJvc3Bpa2UsIEluYy4xGTAXBgNVBAsMEEVuZ2lu
ZWVyaW5nIFRlc3QxEDAOBgNVBAMMB1Jvb3QgQ0EwHhcNMjEwNTI4MTgwMjQ4WhcN
NDEwNTI4MTgwMjQ4WjB5MQswCQYDVQQGEwJVUzELMAkGA1UECAwCQ0ExFjAUBgNV
BAcMDU1vdW50YWluIFZpZXcxGDAWBgNVBAoMD0Flcm9zcGlrZSwgSW5jLjEZMBcG
A1UECwwQRW5naW5lZXJpbmcgVGVzdDEQMA4GA1UEAwwHUm9vdCBDQTCCASIwDQYJ
KoZIhvcNAQEBBQADggEPADCCAQoCggEBAL9s+yP56aRrYrOvud/hAejMhzufMgsh
cLc0OTM+d8xDuV0rY/4rIdWS9JI1SbSS/ADcXZ9GHfZ1BByHxA08FjBEYkHZoenu
jWr2kjXjBQ0r4VYp2GjsvekmNglULzlpbpPXSCcd/NFbuAAQBcABmzSROIrCtS9O
aytKmcRSSF7aUoDNtfySfuzK1UXTvDdxFQnMbVsUBMk1AM7jbOihtRoVFEdH/9LV
3yFUxd5hHMQgB4KcRGC3sJCJecgj/A2n15MM/qWEbsFJp1PWRycxBWIlLHjyejrS
IZsVZaxIkJKPaCs3uHV4euCGHxYfjLto7AA7G2pAGUQIcTbDDEIA69UCAwEAAaNj
MGEwDgYDVR0PAQH/BAQDAgGGMA8GA1UdEwEB/wQFMAMBAf8wHQYDVR0OBBYEFFzU
AEg4R0IfOjkUvNTVt4S4g0TNMB8GA1UdIwQYMBaAFFzUAEg4R0IfOjkUvNTVt4S4
g0TNMA0GCSqGSIb3DQEBCwUAA4IBAQBNY4htOJ8PzBnIQGpvXXSoC9wdtIWa9o6M
EN/wV6zfKYmCkcGU0ujsnU2AKrYBvbAMb1RiIoFgZb7DItSuVyXClJwf9GW9PosJ
DZe2sEMq6GcDEQXB1FIpQrl+Tiq40VNnVl+1TShYAjvTXIkOrh/OIh4X/gz3w1Uc
m84bLNYgBgkJGejk2xU72OH+HCFKUUWa8j8nKAys3bTJCxTEZRdkfGAhD1ZpWa9O
xnfMF3bmAGYvs9U7B6mMG6V2Spx7L6SGeuMIBrfKBTlyhQpEE0CAe/AKabjNtmtK
7Op0KItPPYOrMuc68xuV4tn1SoY0IFw3avzXS0C2Z6uClc4/CAeZ
-----END CERTIFICATE-----