Certificate:
    Data:
        Version: 1 (0x0)
        Serial Number:
            ca:be:0d:65:80:48:ed:25
    Signature Algorithm: sha256WithRSAEncryption
        Issuer: C=US, ST=CA, L=Mountain View, O="Aerospike, Inc.", OU=Engineering Test, CN=Root CA
        Validity
            Not Before: Apr 18 09:22:21 2023 GMT
            Not After : Aug 19 09:22:21 3022 GMT
        Subject: C=US, ST=CA, L=Mountain View, O="Aerospike, Inc.", OU=Engineering Test, CN=Root CA
        Subject Public Key Info:
            Public Key Algorithm: rsaEncryption
                RSA Public-Key: (4096 bit)
                Modulus:
                    00:d9:52:f7:2e:d7:94:72:96:ff:a8:41:3e:a0:12:
                    7a:01:3e:e3:cf:52:7e:2a:96:8c:82:bd:c2:65:cf:
                    70:13:8b:7e:ae:d9:bc:a9:37:0b:26:61:31:a5:3f:
                    69:3f:d2:5b:53:dd:51:20:4c:a4:b7:35:45:ad:d4:
                    79:bb:30:22:07:4b:8b:ff:59:d4:9b:df:e4:66:58:
                    b7:8b:1b:bd:48:0f:08:d0:42:5c:32:08:d0:ba:cf:
                    78:60:02:9a:a0:e2:a6:d7:b5:f9:2a:08:9a:7f:74:
                    a7:15:aa:b1:6c:23:9e:82:55:fa:50:3f:9e:a6:e3:
                    f3:b0:1d:5c:70:59:e8:38:18:b3:af:a1:74:e9:e7:
                    36:96:87:ab:8f:6b:3a:d1:1a:59:e5:69:fb:a3:df:
                    6a:dc:40:b7:4f:42:fb:a2:d5:51:a0:6c:f2:8c:9b:
                    27:99:10:48:93:06:51:f6:1d:ce:59:c8:32:db:7f:
                    54:39:8d:de:7d:28:ae:0b:5f:1b:76:36:7f:5b:2c:
                    62:ca:a8:6f:b4:2e:9a:b5:e2:a5:28:c1:85:3c:26:
                    60:7e:3c:45:c3:6c:99:5b:cd:98:4e:e0:bb:4c:b0:
                    f0:c5:d1:a5:12:01:5f:bf:c3:6c:9a:fa:da:70:79:
                    23:26:12:3c:1f:5d:7f:30:cf:ea:d2:2b:ad:c0:8f:
                    fd:6c:e6:bc:8b:ba:e0:f7:b4:e9:b5:3b:d2:59:e7:
                    df:00:9d:5d:ce:95:cf:30:11:fa:36:55:0a:c4:41:
                    57:b6:09:fe:d1:65:07:7d:11:a2:c6:47:82:62:d8:
                    11:61:a6:48:a8:04:0a:a6:89:8e:4a:2a:68:db:09:
                    c4:95:b4:82:e2:94:68:9b:69:46:d4:bd:cc:7e:b2:
                    2a:e8:b5:85:ec:9c:bd:39:68:60:b9:06:8f:b7:64:
                    2b:16:fc:46:fd:6f:19:13:63:44:54:5a:06:a3:c5:
                    1e:0d:20:36:3d:18:a1:5a:07:0d:53:17:a7:5d:de:
                    25:71:a7:dd:3d:c4:2d:36:bf:ac:b8:58:8c:54:8c:
                    8e:3d:8d:57:5d:c8:7e:a4:a2:e1:42:38:af:c1:88:
                    d6:e9:8c:74:42:e4:f9:b8:d5:7a:c5:7b:20:a5:db:
                    15:3b:8d:a1:77:fb:d3:db:31:6c:b5:de:46:a7:f4:
                    73:4f:cc:55:19:6d:53:bd:be:6d:96:1e:93:18:a2:
                    ee:9e:ea:e7:fa:52:05:68:52:bb:f4:fd:68:9e:79:
                    22:23:33:70:51:b0:1d:24:53:9e:ba:ae:58:db:9e:
                    92:e1:6a:77:9f:b4:6a:68:84:6b:d6:90:0c:fb:80:
                    09:71:20:33:07:69:f1:1b:6c:69:21:ca:aa:2f:66:
                    ca:bb:43
                Exponent: 65537 (0x10001)
    Signature Algorithm: sha256WithRSAEncryption
         89:f0:a1:73:db:d1:0b:e7:e5:fc:78:0c:f5:d3:19:c5:31:c2:
         5a:d9:82:94:45:26:36:c9:b8:3a:4f:65:f3:13:01:66:ce:21:
         c2:b9:81:cf:aa:a3:b7:6b:e6:da:95:31:43:aa:54:24:7b:44:
         6e:fa:db:8b:b5:a7:8a:fb:74:c2:2e:c9:7c:7c:8b:e3:2d:50:
         cf:5f:94:60:b1:de:2b:34:ae:7a:85:35:2f:b6:5d:ea:4f:2e:
         d0:76:7f:f8:28:cd:40:af:10:79:c3:d8:0a:04:50:6d:e7:bc:
         11:fb:a6:6b:ff:b0:e9:f5:fa:43:64:54:79:c0:90:ff:2e:16:
         99:f7:00:84:e6:8d:ff:04:72:0f:19:c5:c9:63:34:8a:a1:b3:
         45:92:b0:0d:22:9d:fa:b7:8c:49:9d:50:ee:e4:30:78:19:fe:
         8c:99:f8:de:c6:ff:73:59:c8:e6:1c:26:64:32:62:26:ad:5e:
         00:01:fa:0f:3b:06:af:6e:0c:43:ab:db:25:08:a0:55:c2:63:
         83:d5:8e:5e:02:cb:a1:6a:eb:be:9d:4e:a9:44:46:04:2c:2b:
         e8:cd:71:c6:62:30:cc:31:7c:65:39:13:35:bc:3d:86:85:48:
         76:a0:44:d7:fb:b4:fa:36:77:1a:85:26:09:20:c5:59:67:20:
         5e:13:58:55:5c:49:10:87:24:56:fd:9b:07:af:d6:7e:d9:85:
         b7:15:6d:eb:7a:79:3a:e9:7f:9a:1a:2c:a1:70:f9:0e:0e:10:
         ef:1e:b8:05:26:00:ae:12:01:90:f3:1a:5f:0b:65:61:01:86:
         5d:59:68:09:55:d6:6c:8c:26:13:14:8e:2b:54:11:47:c6:07:
         d5:c5:2c:3c:bd:0a:bb:e4:56:99:41:d1:26:fb:bb:b0:2b:2b:
         f9:9a:2d:96:9b:19:a9:5f:83:b3:8a:30:7e:8e:09:74:fd:ed:
         e0:d8:5d:a4:96:a6:c8:79:19:fe:b1:cf:50:5e:7d:51:04:7e:
         79:54:f1:92:05:67:01:8d:d2:80:53:0d:a9:8b:73:2b:12:cf:
         24:4d:45:21:47:38:03:02:97:71:fe:01:a2:16:44:8a:9a:df:
         d5:26:18:0a:71:fb:ee:45:f2:5d:fc:c2:ca:58:e9:1f:77:57:
         e9:d4:bc:86:3e:0e:0d:5b:55:4a:9a:d1:bf:30:9c:9b:40:35:
         72:8f:5e:37:20:da:fa:12:a6:8e:8f:c8:44:69:43:39:6b:05:
         e2:49:41:b2:29:8a:00:d3:e9:2c:83:fc:c0:c0:bf:ae:28:17:
         44:67:88:b9:e4:06:5c:a0:f4:9c:52:7c:67:56:a4:52:5e:e3:
         0d:25:89:a4:0e:5d:a4:f0
-----BEGIN CERTIFICATE-----
MIIFdDCCA1wCCQDKvg1lgEjtJTANBgkqhkiG9w0BAQsFADB7MQswCQYDVQQGEwJV
UzELMAkGA1UECAwCQ0ExFjAUBgNVBAcMDU1vdW50YWluIFZpZXcxGjAYBgNVBAoM
ESJBZXJvc3Bpa2UsIEluYy4iMRkwFwYDVQQLDBBFbmdpbmVlcmluZyBUZXN0MRAw
DgYDVQQDDAdSb290IENBMCAXDTIzMDQxODA5MjIyMVoYDzMwMjIwODE5MDkyMjIx
WjB7MQswCQYDVQQGEwJVUzELMAkGA1UECAwCQ0ExFjAUBgNVBAcMDU1vdW50YWlu
IFZpZXcxGjAYBgNVBAoMESJBZXJvc3Bpa2UsIEluYy4iMRkwFwYDVQQLDBBFbmdp
bmVlcmluZyBUZXN0MRAwDgYDVQQDDAdSb290IENBMIICIjANBgkqhkiG9w0BAQEF
AAOCAg8AMIICCgKCAgEA2VL3LteUcpb/qEE+oBJ6AT7jz1J+KpaMgr3CZc9wE4t+
rtm8qTcLJmExpT9pP9JbU91RIEyktzVFrdR5uzAiB0uL/1nUm9/kZli3ixu9SA8I
0EJcMgjQus94YAKaoOKm17X5Kgiaf3SnFaqxbCOeglX6UD+epuPzsB1ccFnoOBiz
r6F06ec2loerj2s60RpZ5Wn7o99q3EC3T0L7otVRoGzyjJsnmRBIkwZR9h3OWcgy
239UOY3efSiuC18bdjZ/WyxiyqhvtC6ateKlKMGFPCZgfjxFw2yZW82YTuC7TLDw
xdGlEgFfv8NsmvracHkjJhI8H11/MM/q0iutwI/9bOa8i7rg97TptTvSWeffAJ1d
zpXPMBH6NlUKxEFXtgn+0WUHfRGixkeCYtgRYaZIqAQKpomOSipo2wnElbSC4pRo
m2lG1L3MfrIq6LWF7Jy9OWhguQaPt2QrFvxG/W8ZE2NEVFoGo8UeDSA2PRihWgcN
UxenXd4lcafdPcQtNr+suFiMVIyOPY1XXch+pKLhQjivwYjW6Yx0QuT5uNV6xXsg
pdsVO42hd/vT2zFstd5Gp/RzT8xVGW1Tvb5tlh6TGKLunurn+lIFaFK79P1onnki
IzNwUbAdJFOeuq5Y256S4Wp3n7RqaIRr1pAM+4AJcSAzB2nxG2xpIcqqL2bKu0MC
AwEAATANBgkqhkiG9w0BAQsFAAOCAgEAifChc9vRC+fl/HgM9dMZxTHCWtmClEUm
Nsm4Ok9l8xMBZs4hwrmBz6qjt2vm2pUxQ6pUJHtEbvrbi7Wnivt0wi7JfHyL4y1Q
z1+UYLHeKzSueoU1L7Zd6k8u0HZ/+CjNQK8QecPYCgRQbee8Efuma/+w6fX6Q2RU
ecCQ/y4WmfcAhOaN/wRyDxnFyWM0iqGzRZKwDSKd+reMSZ1Q7uQweBn+jJn43sb/
c1nI5hwmZDJiJq1eAAH6DzsGr24MQ6vbJQigVcJjg9WOXgLLoWrrvp1OqURGBCwr
6M1xxmIwzDF8ZTkTNbw9hoVIdqBE1/u0+jZ3GoUmCSDFWWcgXhNYVVxJEIckVv2b
B6/WftmFtxVt63p5Oul/mhosoXD5Dg4Q7x64BSYArhIBkPMaXwtlYQGGXVloCVXW
bIwmExSOK1QRR8YH1cUsPL0Ku+RWmUHRJvu7sCsr+ZotlpsZqV+Ds4owfo4JdP3t
4NhdpJamyHkZ/rHPUF59UQR+eVTxkgVnAY3SgFMNqYtzKxLPJE1FIUc4AwKXcf4B
ohZEiprf1SYYCnH77kXyXfzCyljpH3dX6dS8hj4ODVtVSprRvzCcm0A1co9eNyDa
+hKmjo/IRGlDOWsF4klBsimKANPpLIP8wMC/rigXRGeIueQGXKD0nFJ8Z1akUl7j
DSWJpA5dpPA=
-----END CERTIFICATE-----
