Certificate:
    Data:
        Version: 3 (0x2)
        Serial Number: 16997004083495811737 (0xebe17d28f2a1ba99)
    Signature Algorithm: sha256WithRSAEncryption
        Issuer: C=US, ST=CA, L=Mountain View, O=Aerospike, Inc., OU=Engineering Test, CN=Root CA
        Validity
            Not Before: Nov  5 20:06:00 2020 GMT
            Not After : Nov  5 20:06:00 2040 GMT
        Subject: C=US, ST=CA, L=Mountain View, O=Aerospike, Inc., OU=Engineering Test, CN=Root CA
        Subject Public Key Info:
            Public Key Algorithm: rsaEncryption
                Public-Key: (2048 bit)
                Modulus:
                    00:c8:a7:c1:a0:8b:30:33:fb:1f:cb:cd:ad:bb:cd:
                    1d:e6:9a:66:bc:e7:81:54:00:75:35:87:8d:f3:20:
                    e6:12:71:d2:50:21:75:15:02:9b:b4:04:b8:1e:36:
                    b0:67:a4:2c:88:c6:4c:bc:60:f1:f5:68:3c:67:01:
                    d4:b9:df:0a:12:84:af:a0:5e:79:a5:f7:97:dd:75:
                    0b:91:ac:de:36:27:2e:2a:c0:0d:c9:1a:8c:a5:d4:
                    fc:24:6d:d4:ca:d6:27:50:33:e2:2c:eb:4b:41:73:
                    b6:93:ca:64:38:70:02:6f:5b:6a:00:28:07:31:e7:
                    5a:46:45:14:38:25:b5:12:a1:bf:26:0f:d3:49:7d:
                    aa:fa:ed:8a:41:96:87:2b:5d:03:6f:a7:f4:98:07:
                    50:23:28:93:62:33:78:53:89:52:9d:c6:5a:3c:4a:
                    ea:3c:b8:b9:13:35:8a:3a:16:29:41:5e:53:19:b5:
                    f5:83:a5:be:5b:4e:1e:ca:24:0e:fa:6c:f7:47:0d:
                    74:54:fe:06:83:51:10:ca:ce:41:b3:c8:9f:18:13:
                    1d:d5:74:b6:b1:e7:3f:b2:0f:ca:cc:0a:8e:d0:55:
                    b2:9b:92:71:32:4a:69:bf:f7:ee:7d:93:f1:3e:aa:
                    89:e6:e4:45:fe:a9:47:f9:dc:fe:ea:23:a9:0f:5c:
                    b8:db
                Exponent: 65537 (0x10001)
        X509v3 extensions:
            X509v3 Key Usage: critical
                Digital Signature, Certificate Sign, CRL Sign
            X509v3 Basic Constraints: critical
                CA:TRUE
            X509v3 Subject Key Identifier:
                CB:DD:69:7B:6D:3D:C7:6F:36:C0:EB:AF:4C:26:4D:3E:E0:97:53:61
            X509v3 Authority Key Identifier:
                keyid:CB:DD:69:7B:6D:3D:C7:6F:36:C0:EB:AF:4C:26:4D:3E:E0:97:53:61

    Signature Algorithm: sha256WithRSAEncryption
         14:af:81:8b:66:10:92:5e:5a:d5:11:a1:4e:d5:21:c1:3f:09:
         bd:d2:9c:f3:62:48:12:1b:f6:0d:55:d3:54:6d:02:5c:ff:0f:
         9d:83:dc:f1:3f:3e:d8:b3:8d:c7:17:db:89:ef:f7:53:a2:26:
         7f:f1:f5:9e:1d:7d:47:49:30:ec:82:d8:be:4b:c9:f4:3c:6f:
         44:a1:3b:86:e4:03:37:6d:a5:54:53:d6:75:db:e1:7b:ff:06:
         17:48:0f:41:e1:52:d4:f7:cb:d9:9b:d6:f1:00:f8:8e:fb:38:
         65:84:f8:ce:ac:4f:81:d3:28:0c:06:b8:ef:79:60:56:3e:d3:
         9e:5a:79:66:99:d8:cb:4a:b5:57:be:b8:19:e5:94:be:55:08:
         c8:f6:4c:86:43:89:48:cb:2c:bc:ea:6d:da:43:a2:09:c1:8e:
         80:7a:72:fd:1a:cf:1b:65:50:c4:ac:23:36:f3:97:2a:32:15:
         2e:dc:fe:d3:1f:0b:80:75:0b:fb:19:06:d1:ee:a2:ec:86:9d:
         f2:4b:46:2a:39:f5:03:31:5e:98:d5:cb:4e:60:86:31:fc:10:
         2f:78:6a:4a:5c:69:2c:c5:2a:f9:68:bb:7a:52:57:21:45:5f:
         aa:c8:be:b2:0a:3b:2f:59:98:4d:92:39:ea:cc:a9:a3:78:60:
         5c:c9:af:dc
-----BEGIN CERTIFICATE-----
MIID2DCCAsCgAwIBAgIJAOvhfSjyobqZMA0GCSqGSIb3DQEBCwUAMHkxCzAJBgNV
BAYTAlVTMQswCQYDVQQIDAJDQTEWMBQGA1UEBwwNTW91bnRhaW4gVmlldzEYMBYG
A1UECgwPQWVyb3NwaWtlLCBJbmMuMRkwFwYDVQQLDBBFbmdpbmVlcmluZyBUZXN0
MRAwDgYDVQQDDAdSb290IENBMB4XDTIwMTEwNTIwMDYwMFoXDTQwMTEwNTIwMDYw
MFoweTELMAkGA1UEBhMCVVMxCzAJBgNVBAgMAkNBMRYwFAYDVQQHDA1Nb3VudGFp
biBWaWV3MRgwFgYDVQQKDA9BZXJvc3Bpa2UsIEluYy4xGTAXBgNVBAsMEEVuZ2lu
ZWVyaW5nIFRlc3QxEDAOBgNVBAMMB1Jvb3QgQ0EwggEiMA0GCSqGSIb3DQEBAQUA
A4IBDwAwggEKAoIBAQDIp8GgizAz+x/Lza27zR3mmma854FUAHU1h43zIOYScdJQ
IXUVApu0BLgeNrBnpCyIxky8YPH1aDxnAdS53woShK+gXnml95fddQuRrN42Jy4q
wA3JGoyl1PwkbdTK1idQM+Is60tBc7aTymQ4cAJvW2oAKAcx51pGRRQ4JbUSob8m
D9NJfar67YpBlocrXQNvp/SYB1AjKJNiM3hTiVKdxlo8Suo8uLkTNYo6FilBXlMZ
tfWDpb5bTh7KJA76bPdHDXRU/gaDURDKzkGzyJ8YEx3VdLax5z+yD8rMCo7QVbKb
knEySmm/9+59k/E+qonm5EX+qUf53P7qI6kPXLjbAgMBAAGjYzBhMA4GA1UdDwEB
/wQEAwIBhjAPBgNVHRMBAf8EBTADAQH/MB0GA1UdDgQWBBTL3Wl7bT3HbzbA669M
Jk0+4JdTYTAfBgNVHSMEGDAWgBTL3Wl7bT3HbzbA669MJk0+4JdTYTANBgkqhkiG
9w0BAQsFAAOCAQEAFK+Bi2YQkl5a1RGhTtUhwT8JvdKc82JIEhv2DVXTVG0CXP8P
nYPc8T8+2LONxxfbie/3U6Imf/H1nh19R0kw7ILYvkvJ9DxvRKE7huQDN22lVFPW
ddvhe/8GF0gPQeFS1PfL2ZvW8QD4jvs4ZYT4zqxPgdMoDAa473lgVj7Tnlp5ZpnY
y0q1V764GeWUvlUIyPZMhkOJSMssvOpt2kOiCcGOgHpy/RrPG2VQxKwjNvOXKjIV
Ltz+0x8LgHUL+xkG0e6i7Iad8ktGKjn1AzFemNXLTmCGMfwQL3hqSlxpLMUq+Wi7
elJXIUVfqsi+sgo7L1mYTZI56sypo3hgXMmv3A==
-----END CERTIFICATE-----