Certificate:
    Data:
        Version: 3 (0x2)
        Serial Number:
            23:32:94:fb:78:de:94:ef:f0:3c:27:c2:b9:07:16:a1
    Signature Algorithm: sha256WithRSAEncryption
        Issuer: C=US, ST=CA, O=Aerospike, Inc., OU=Engineering Test, CN=Chain Signing Cert
        Validity
            Not Before: Nov  5 20:06:01 2020 GMT
            Not After : Nov  4 20:06:01 2024 GMT
        Subject: C=US, ST=CA, O=Aerospike, Inc., OU=Cluster Name Test, CN=bob-cluster-c
        Subject Public Key Info:
            Public Key Algorithm: rsaEncryption
                Public-Key: (2048 bit)
                Modulus:
                    00:a7:13:13:89:be:ba:87:d9:4a:81:69:6e:76:01:
                    e8:b4:1e:17:d1:97:31:fc:0a:dc:71:04:9a:01:09:
                    71:de:7e:0f:7a:7a:f6:b0:27:25:17:fc:3e:06:a7:
                    a4:60:9e:e5:ba:eb:e6:fc:20:42:05:f5:22:a7:20:
                    c7:9d:3f:c2:16:9b:92:dc:36:f6:83:36:f9:be:d2:
                    8f:91:d4:b7:8d:8a:ef:d7:5a:37:e5:70:33:1c:d2:
                    3d:66:04:e3:36:ed:20:d4:42:b1:07:10:62:dc:80:
                    9f:cb:7b:e2:d1:4a:2a:03:ec:40:dc:88:fd:77:6d:
                    4b:fe:a3:33:62:6b:98:00:c2:a1:17:10:b5:31:bf:
                    78:b3:37:fc:53:91:32:9f:7c:b3:f5:a1:71:b7:27:
                    bc:f2:dc:51:0e:ff:04:64:87:3b:6f:d1:05:b7:e9:
                    1d:8d:88:9f:7b:73:53:a3:75:5a:23:aa:b8:59:cc:
                    bc:68:da:64:42:bf:1b:43:6b:f8:f2:f1:61:c5:19:
                    75:36:6f:67:ba:b2:63:89:f0:bb:ae:56:dd:2f:3b:
                    c1:3a:30:fc:8f:bf:28:58:80:be:ea:9c:a1:d4:ee:
                    33:c0:55:4a:1e:5b:13:ea:b2:fe:d4:74:4c:9d:19:
                    68:54:90:4b:3c:d3:45:8a:7d:bc:cc:16:20:19:6c:
                    d5:77
                Exponent: 65537 (0x10001)
        X509v3 extensions:
            X509v3 Authority Key Identifier: 
                keyid:BC:72:1F:3D:E6:B5:5C:BD:B9:2E:98:5E:FD:53:F7:F1:EA:17:70:96

            X509v3 Subject Key Identifier: 
                D8:FF:85:1B:1D:75:E2:BF:3F:B2:43:A1:B1:E0:F4:3C:56:C6:F7:22
            X509v3 Key Usage: critical
                Digital Signature, Key Encipherment
            X509v3 Extended Key Usage: 
                TLS Web Server Authentication, TLS Web Client Authentication
            X509v3 CRL Distribution Points: 

                Full Name:
                  URI:http://myhost.com/myca1.crl

                Full Name:
                  URI:http://myhost.com/myca2.crl

            X509v3 Certificate Policies: 
                Policy: 2.16.840.1.114412.1.1
                  CPS: https://myhost.com/CPS
                Policy: 2.23.140.1.2.2

            Authority Information Access: 
                OCSP - URI:http://ocsp.my.host/
                CA Issuers - URI:http://my.ca/ca.html

            X509v3 Basic Constraints: critical
                CA:FALSE
    Signature Algorithm: sha256WithRSAEncryption
         56:d0:fa:39:e1:74:7b:8c:ba:2e:dc:55:90:74:7f:4e:eb:e0:
         b3:e3:64:59:56:1c:7f:0f:e3:2f:c0:66:7a:35:16:59:8b:89:
         15:b1:35:8a:8e:4d:14:41:bb:99:a5:e3:70:0f:ec:37:c0:ec:
         07:3a:f5:c1:ce:5a:64:5b:35:56:b9:71:bc:43:b1:8d:89:ad:
         50:52:55:1c:07:58:0a:df:6f:c5:7e:a9:f5:d0:23:72:f9:72:
         70:68:de:ee:35:98:d2:40:71:2c:5d:cf:83:ad:e4:5c:9b:a1:
         5a:50:a9:93:d9:cf:72:29:8c:f6:d1:4d:8a:ea:0e:da:98:22:
         8d:43:bf:75:eb:2e:a4:65:a9:99:9d:0b:90:d4:c6:38:10:21:
         4c:3e:9a:39:70:42:66:a8:fe:6d:2e:31:8d:3b:e6:43:c9:14:
         ec:e8:09:7d:97:da:6c:d5:15:6b:dc:28:5c:4f:fb:d9:d1:37:
         8c:49:1a:c1:dc:77:2e:8c:eb:2a:c3:07:95:8a:20:cf:ba:88:
         46:43:74:d7:c7:c0:47:27:dd:51:46:2a:66:a1:a0:30:eb:2b:
         6b:95:30:24:a8:6e:04:18:b7:70:8e:ab:88:08:8e:80:cf:81:
         61:4c:fb:4b:24:b0:4a:1c:45:64:aa:72:28:68:ae:62:20:b3:
         dd:59:ea:9b
-----BEGIN CERTIFICATE-----
MIIEzjCCA7agAwIBAgIQIzKU+3jelO/wPCfCuQcWoTANBgkqhkiG9w0BAQsFADBs
MQswCQYDVQQGEwJVUzELMAkGA1UECAwCQ0ExGDAWBgNVBAoMD0Flcm9zcGlrZSwg
SW5jLjEZMBcGA1UECwwQRW5naW5lZXJpbmcgVGVzdDEbMBkGA1UEAwwSQ2hhaW4g
U2lnbmluZyBDZXJ0MB4XDTIwMTEwNTIwMDYwMVoXDTI0MTEwNDIwMDYwMVowaDEL
MAkGA1UEBhMCVVMxCzAJBgNVBAgMAkNBMRgwFgYDVQQKDA9BZXJvc3Bpa2UsIElu
Yy4xGjAYBgNVBAsMEUNsdXN0ZXIgTmFtZSBUZXN0MRYwFAYDVQQDDA1ib2ItY2x1
c3Rlci1jMIIBIjANBgkqhkiG9w0BAQEFAAOCAQ8AMIIBCgKCAQEApxMTib66h9lK
gWludgHotB4X0Zcx/ArccQSaAQlx3n4Penr2sCclF/w+BqekYJ7luuvm/CBCBfUi
pyDHnT/CFpuS3Db2gzb5vtKPkdS3jYrv11o35XAzHNI9ZgTjNu0g1EKxBxBi3ICf
y3vi0UoqA+xA3Ij9d21L/qMzYmuYAMKhFxC1Mb94szf8U5Eyn3yz9aFxtye88txR
Dv8EZIc7b9EFt+kdjYife3NTo3VaI6q4Wcy8aNpkQr8bQ2v48vFhxRl1Nm9nurJj
ifC7rlbdLzvBOjD8j78oWIC+6pyh1O4zwFVKHlsT6rL+1HRMnRloVJBLPNNFin28
zBYgGWzVdwIDAQABo4IBbjCCAWowHwYDVR0jBBgwFoAUvHIfPea1XL25Lphe/VP3
8eoXcJYwHQYDVR0OBBYEFNj/hRsddeK/P7JDobHg9DxWxvciMA4GA1UdDwEB/wQE
AwIFoDAdBgNVHSUEFjAUBggrBgEFBQcDAQYIKwYBBQUHAwIwTwYDVR0fBEgwRjAh
oB+gHYYbaHR0cDovL215aG9zdC5jb20vbXljYTEuY3JsMCGgH6AdhhtodHRwOi8v
bXlob3N0LmNvbS9teWNhMi5jcmwwRgYDVR0gBD8wPTAxBglghkgBhv1sAQEwJDAi
BggrBgEFBQcCARYWaHR0cHM6Ly9teWhvc3QuY29tL0NQUzAIBgZngQwBAgIwUgYI
KwYBBQUHAQEERjBEMCAGCCsGAQUFBzABhhRodHRwOi8vb2NzcC5teS5ob3N0LzAg
BggrBgEFBQcwAoYUaHR0cDovL215LmNhL2NhLmh0bWwwDAYDVR0TAQH/BAIwADAN
BgkqhkiG9w0BAQsFAAOCAQEAVtD6OeF0e4y6LtxVkHR/Tuvgs+NkWVYcfw/jL8Bm
ejUWWYuJFbE1io5NFEG7maXjcA/sN8DsBzr1wc5aZFs1VrlxvEOxjYmtUFJVHAdY
Ct9vxX6p9dAjcvlycGje7jWY0kBxLF3Pg63kXJuhWlCpk9nPcimM9tFNiuoO2pgi
jUO/desupGWpmZ0LkNTGOBAhTD6aOXBCZqj+bS4xjTvmQ8kU7OgJfZfabNUVa9wo
XE/72dE3jEkawdx3LozrKsMHlYogz7qIRkN018fARyfdUUYqZqGgMOsra5UwJKhu
BBi3cI6riAiOgM+BYUz7SySwShxFZKpyKGiuYiCz3Vnqmw==
-----END CERTIFICATE-----
Certificate:
    Data:
        Version: 3 (0x2)
        Serial Number:
            74:1c:15:a7:eb:cf:32:43:a9:06:23:7b:91:27:17:b2
    Signature Algorithm: sha256WithRSAEncryption
        Issuer: C=US, ST=CA, L=Mountain View, O=Aerospike, Inc., OU=Engineering Test, CN=Root CA
        Validity
            Not Before: Nov  5 20:06:00 2020 GMT
            Not After : Nov  4 20:06:00 2024 GMT
        Subject: C=US, ST=CA, O=Aerospike, Inc., OU=Engineering Test, CN=Chain Signing Cert
        Subject Public Key Info:
            Public Key Algorithm: rsaEncryption
                Public-Key: (2048 bit)
                Modulus:
                    00:b4:f0:1a:07:98:ab:c8:43:ea:b6:f5:34:2d:a5:
                    2b:2e:8e:f1:e1:fc:f7:6e:8c:a7:50:b9:fb:55:da:
                    23:44:ff:2d:e0:68:de:a4:f8:74:47:ef:46:01:11:
                    50:22:7e:bd:d7:38:ba:31:e6:d5:72:78:1e:45:47:
                    49:1b:27:7a:10:1b:f9:34:75:01:44:55:37:be:c8:
                    e7:b4:9f:01:68:f3:e6:4f:35:a5:38:9e:87:8f:1f:
                    53:ea:0b:0b:1d:63:d9:45:1f:4d:be:36:90:ac:b4:
                    af:c7:4d:39:ab:5b:42:e5:81:d7:c8:95:e3:76:7a:
                    fd:86:c4:26:13:2b:27:27:1d:e9:ee:cd:6c:cc:41:
                    47:b1:a5:4e:fb:4d:30:bb:ba:68:1a:3c:e8:71:94:
                    f1:ae:3f:8c:5e:be:72:72:97:3e:e5:f0:1b:d0:f7:
                    5c:14:14:54:3d:2d:3c:0d:75:7f:3d:54:b0:a8:f0:
                    3e:68:c5:b8:5d:35:71:c0:b5:66:88:6a:9e:af:14:
                    34:1f:2f:4d:c6:f2:73:3a:d8:47:9e:b6:d7:b1:54:
                    74:b9:21:1f:62:18:10:ad:09:19:51:65:5b:4f:b2:
                    1a:54:5c:86:c4:42:45:97:d5:2f:2e:54:71:cc:52:
                    76:af:dd:e2:21:a0:ee:9a:4d:2b:79:47:8a:47:30:
                    7f:c7
                Exponent: 65537 (0x10001)
        X509v3 extensions:
            X509v3 Basic Constraints: critical
                CA:TRUE, pathlen:0
            X509v3 Key Usage: critical
                Digital Signature, Key Encipherment, Certificate Sign, CRL Sign
            X509v3 Extended Key Usage: 
                TLS Web Server Authentication, TLS Web Client Authentication
            Authority Information Access: 
                OCSP - URI:http://ocsp.my.host/

            X509v3 CRL Distribution Points: 

                Full Name:
                  URI:http://myhost.com/myca.crl

            X509v3 Certificate Policies: 
                Policy: X509v3 Any Policy
                  CPS: https://myhost.com/CPS

            X509v3 Subject Key Identifier: 
                BC:72:1F:3D:E6:B5:5C:BD:B9:2E:98:5E:FD:53:F7:F1:EA:17:70:96
            X509v3 Authority Key Identifier: 
                keyid:CB:DD:69:7B:6D:3D:C7:6F:36:C0:EB:AF:4C:26:4D:3E:E0:97:53:61

    Signature Algorithm: sha256WithRSAEncryption
         01:c9:f8:3e:bd:55:a0:3b:39:81:5e:c3:81:59:c0:40:31:6e:
         a9:db:47:0e:76:84:63:21:84:67:f8:b2:fc:77:2d:0f:9b:b7:
         a5:9d:e4:3e:c9:8b:a3:30:a8:34:81:d4:48:0a:b4:a7:19:42:
         a9:5a:35:94:32:c3:a7:7a:d7:50:6c:6d:c8:d2:7f:3e:0c:54:
         1e:c0:06:7c:2c:c6:82:f4:1e:5b:9f:42:de:4b:cb:38:59:4c:
         17:0a:a0:d0:db:5d:2c:58:a9:63:cc:c0:6c:17:a8:a4:8b:f7:
         6c:3f:11:ca:2b:2d:db:5b:03:ad:fd:23:5c:ae:30:26:96:b6:
         8f:04:b9:51:89:29:22:4e:91:82:ef:20:26:8c:ff:02:54:64:
         31:01:ce:81:01:8c:ab:34:05:b3:4a:38:97:56:29:74:a1:ea:
         57:25:d4:9c:f5:27:97:bc:80:9a:c5:df:f9:c0:53:4d:34:75:
         df:e5:23:7f:16:11:70:83:99:9b:b4:3e:d7:13:f1:78:b7:37:
         bd:2e:66:a4:53:d9:c7:7c:93:a9:c9:fc:49:0a:e2:4f:3f:9d:
         50:d9:21:33:52:e6:e5:60:a5:ca:3f:d9:75:0e:55:0a:3e:0f:
         7a:4a:e6:e4:8a:fe:a9:0d:f2:0d:a1:bf:ad:a6:b8:4d:6c:34:
         36:fc:2c:b6
-----BEGIN CERTIFICATE-----
MIIEkDCCA3igAwIBAgIQdBwVp+vPMkOpBiN7kScXsjANBgkqhkiG9w0BAQsFADB5
MQswCQYDVQQGEwJVUzELMAkGA1UECAwCQ0ExFjAUBgNVBAcMDU1vdW50YWluIFZp
ZXcxGDAWBgNVBAoMD0Flcm9zcGlrZSwgSW5jLjEZMBcGA1UECwwQRW5naW5lZXJp
bmcgVGVzdDEQMA4GA1UEAwwHUm9vdCBDQTAeFw0yMDExMDUyMDA2MDBaFw0yNDEx
MDQyMDA2MDBaMGwxCzAJBgNVBAYTAlVTMQswCQYDVQQIDAJDQTEYMBYGA1UECgwP
QWVyb3NwaWtlLCBJbmMuMRkwFwYDVQQLDBBFbmdpbmVlcmluZyBUZXN0MRswGQYD
VQQDDBJDaGFpbiBTaWduaW5nIENlcnQwggEiMA0GCSqGSIb3DQEBAQUAA4IBDwAw
ggEKAoIBAQC08BoHmKvIQ+q29TQtpSsujvHh/PdujKdQuftV2iNE/y3gaN6k+HRH
70YBEVAifr3XOLox5tVyeB5FR0kbJ3oQG/k0dQFEVTe+yOe0nwFo8+ZPNaU4noeP
H1PqCwsdY9lFH02+NpCstK/HTTmrW0LlgdfIleN2ev2GxCYTKycnHenuzWzMQUex
pU77TTC7umgaPOhxlPGuP4xevnJylz7l8BvQ91wUFFQ9LTwNdX89VLCo8D5oxbhd
NXHAtWaIap6vFDQfL03G8nM62EeettexVHS5IR9iGBCtCRlRZVtPshpUXIbEQkWX
1S8uVHHMUnav3eIhoO6aTSt5R4pHMH/HAgMBAAGjggEfMIIBGzASBgNVHRMBAf8E
CDAGAQH/AgEAMA4GA1UdDwEB/wQEAwIBpjAdBgNVHSUEFjAUBggrBgEFBQcDAQYI
KwYBBQUHAwIwMAYIKwYBBQUHAQEEJDAiMCAGCCsGAQUFBzABhhRodHRwOi8vb2Nz
cC5teS5ob3N0LzArBgNVHR8EJDAiMCCgHqAchhpodHRwOi8vbXlob3N0LmNvbS9t
eWNhLmNybDA3BgNVHSAEMDAuMCwGBFUdIAAwJDAiBggrBgEFBQcCARYWaHR0cHM6
Ly9teWhvc3QuY29tL0NQUzAdBgNVHQ4EFgQUvHIfPea1XL25Lphe/VP38eoXcJYw
HwYDVR0jBBgwFoAUy91pe209x282wOuvTCZNPuCXU2EwDQYJKoZIhvcNAQELBQAD
ggEBAAHJ+D69VaA7OYFew4FZwEAxbqnbRw52hGMhhGf4svx3LQ+bt6Wd5D7Ji6Mw
qDSB1EgKtKcZQqlaNZQyw6d611BsbcjSfz4MVB7ABnwsxoL0HlufQt5LyzhZTBcK
oNDbXSxYqWPMwGwXqKSL92w/EcorLdtbA639I1yuMCaWto8EuVGJKSJOkYLvICaM
/wJUZDEBzoEBjKs0BbNKOJdWKXSh6lcl1Jz1J5e8gJrF3/nAU000dd/lI38WEXCD
mZu0PtcT8Xi3N70uZqRT2cd8k6nJ/EkK4k8/nVDZITNS5uVgpco/2XUOVQo+D3pK
5uSK/qkN8g2hv62muE1sNDb8LLY=
-----END CERTIFICATE-----