Certificate:
    Data:
        Version: 3 (0x2)
        Serial Number:
            23:32:94:fb:78:de:94:ef:f0:3c:27:c2:b9:07:16:a1
    Signature Algorithm: sha256WithRSAEncryption
        Issuer: C=US, ST=CA, O=Aerospike, Inc., OU=Engineering Test, CN=Chain Signing Cert
        Validity
            Not Before: Nov  5 20:06:01 2020 GMT
            Not After : Nov  4 20:06:01 2024 GMT
        Subject: C=US, ST=CA, O=Aerospike, Inc., OU=Cluster Name Test, CN=bob-cluster-c
        Subject Public Key Info:
            Public Key Algorithm: rsaEncryption
                Public-Key: (2048 bit)
                Modulus:
                    00:a7:13:13:89:be:ba:87:d9:4a:81:69:6e:76:01:
                    e8:b4:1e:17:d1:97:31:fc:0a:dc:71:04:9a:01:09:
                    71:de:7e:0f:7a:7a:f6:b0:27:25:17:fc:3e:06:a7:
                    a4:60:9e:e5:ba:eb:e6:fc:20:42:05:f5:22:a7:20:
                    c7:9d:3f:c2:16:9b:92:dc:36:f6:83:36:f9:be:d2:
                    8f:91:d4:b7:8d:8a:ef:d7:5a:37:e5:70:33:1c:d2:
                    3d:66:04:e3:36:ed:20:d4:42:b1:07:10:62:dc:80:
                    9f:cb:7b:e2:d1:4a:2a:03:ec:40:dc:88:fd:77:6d:
                    4b:fe:a3:33:62:6b:98:00:c2:a1:17:10:b5:31:bf:
                    78:b3:37:fc:53:91:32:9f:7c:b3:f5:a1:71:b7:27:
                    bc:f2:dc:51:0e:ff:04:64:87:3b:6f:d1:05:b7:e9:
                    1d:8d:88:9f:7b:73:53:a3:75:5a:23:aa:b8:59:cc:
                    bc:68:da:64:42:bf:1b:43:6b:f8:f2:f1:61:c5:19:
                    75:36:6f:67:ba:b2:63:89:f0:bb:ae:56:dd:2f:3b:
                    c1:3a:30:fc:8f:bf:28:58:80:be:ea:9c:a1:d4:ee:
                    33:c0:55:4a:1e:5b:13:ea:b2:fe:d4:74:4c:9d:19:
                    68:54:90:4b:3c:d3:45:8a:7d:bc:cc:16:20:19:6c:
                    d5:77
                Exponent: 65537 (0x10001)
        X509v3 extensions:
            X509v3 Authority Key Identifier: 
                keyid:BC:72:1F:3D:E6:B5:5C:BD:B9:2E:98:5E:FD:53:F7:F1:EA:17:70:96

            X509v3 Subject Key Identifier: 
                D8:FF:85:1B:1D:75:E2:BF:3F:B2:43:A1:B1:E0:F4:3C:56:C6:F7:22
            X509v3 Key Usage: critical
                Digital Signature, Key Encipherment
            X509v3 Extended Key Usage: 
                TLS Web Server Authentication, TLS Web Client Authentication
            X509v3 CRL Distribution Points: 

                Full Name:
                  URI:http://myhost.com/myca1.crl

                Full Name:
                  URI:http://myhost.com/myca2.crl

            X509v3 Certificate Policies: 
                Policy: 2.16.840.1.114412.1.1
                  CPS: https://myhost.com/CPS
                Policy: 2.23.140.1.2.2

            Authority Information Access: 
                OCSP - URI:http://ocsp.my.host/
                CA Issuers - URI:http://my.ca/ca.html

            X509v3 Basic Constraints: critical
                CA:FALSE
    Signature Algorithm: sha256WithRSAEncryption
         56:d0:fa:39:e1:74:7b:8c:ba:2e:dc:55:90:74:7f:4e:eb:e0:
         b3:e3:64:59:56:1c:7f:0f:e3:2f:c0:66:7a:35:16:59:8b:89:
         15:b1:35:8a:8e:4d:14:41:bb:99:a5:e3:70:0f:ec:37:c0:ec:
         07:3a:f5:c1:ce:5a:64:5b:35:56:b9:71:bc:43:b1:8d:89:ad:
         50:52:55:1c:07:58:0a:df:6f:c5:7e:a9:f5:d0:23:72:f9:72:
         70:68:de:ee:35:98:d2:40:71:2c:5d:cf:83:ad:e4:5c:9b:a1:
         5a:50:a9:93:d9:cf:72:29:8c:f6:d1:4d:8a:ea:0e:da:98:22:
         8d:43:bf:75:eb:2e:a4:65:a9:99:9d:0b:90:d4:c6:38:10:21:
         4c:3e:9a:39:70:42:66:a8:fe:6d:2e:31:8d:3b:e6:43:c9:14:
         ec:e8:09:7d:97:da:6c:d5:15:6b:dc:28:5c:4f:fb:d9:d1:37:
         8c:49:1a:c1:dc:77:2e:8c:eb:2a:c3:07:95:8a:20:cf:ba:88:
         46:43:74:d7:c7:c0:47:27:dd:51:46:2a:66:a1:a0:30:eb:2b:
         6b:95:30:24:a8:6e:04:18:b7:70:8e:ab:88:08:8e:80:cf:81:
         61:4c:fb:4b:24:b0:4a:1c:45:64:aa:72:28:68:ae:62:20:b3:
         dd:59:ea:9b
-----BEGIN CERTIFICATE-----
MIIEzjCCA7agAwIBAgIQIzKU+3jelO/wPCfCuQcWoTANBgkqhkiG9w0BAQsFADBs
MQswCQYDVQQGEwJVUzELMAkGA1UECAwCQ0ExGDAWBgNVBAoMD0Flcm9zcGlrZSwg
SW5jLjEZMBcGA1UECwwQRW5naW5lZXJpbmcgVGVzdDEbMBkGA1UEAwwSQ2hhaW4g
U2lnbmluZyBDZXJ0MB4XDTIwMTEwNTIwMDYwMVoXDTI0MTEwNDIwMDYwMVowaDEL
MAkGA1UEBhMCVVMxCzAJBgNVBAgMAkNBMRgwFgYDVQQKDA9BZXJvc3Bpa2UsIElu
Yy4xGjAYBgNVBAsMEUNsdXN0ZXIgTmFtZSBUZXN0MRYwFAYDVQQDDA1ib2ItY2x1
c3Rlci1jMIIBIjANBgkqhkiG9w0BAQEFAAOCAQ8AMIIBCgKCAQEApxMTib66h9lK
gWludgHotB4X0Zcx/ArccQSaAQlx3n4Penr2sCclF/w+BqekYJ7luuvm/CBCBfUi
pyDHnT/CFpuS3Db2gzb5vtKPkdS3jYrv11o35XAzHNI9ZgTjNu0g1EKxBxBi3ICf
y3vi0UoqA+xA3Ij9d21L/qMzYmuYAMKhFxC1Mb94szf8U5Eyn3yz9aFxtye88txR
Dv8EZIc7b9EFt+kdjYife3NTo3VaI6q4Wcy8aNpkQr8bQ2v48vFhxRl1Nm9nurJj
ifC7rlbdLzvBOjD8j78oWIC+6pyh1O4zwFVKHlsT6rL+1HRMnRloVJBLPNNFin28
zBYgGWzVdwIDAQABo4IBbjCCAWowHwYDVR0jBBgwFoAUvHIfPea1XL25Lphe/VP3
8eoXcJYwHQYDVR0OBBYEFNj/hRsddeK/P7JDobHg9DxWxvciMA4GA1UdDwEB/wQE
AwIFoDAdBgNVHSUEFjAUBggrBgEFBQcDAQYIKwYBBQUHAwIwTwYDVR0fBEgwRjAh
oB+gHYYbaHR0cDovL215aG9zdC5jb20vbXljYTEuY3JsMCGgH6AdhhtodHRwOi8v
bXlob3N0LmNvbS9teWNhMi5jcmwwRgYDVR0gBD8wPTAxBglghkgBhv1sAQEwJDAi
BggrBgEFBQcCARYWaHR0cHM6Ly9teWhvc3QuY29tL0NQUzAIBgZngQwBAgIwUgYI
KwYBBQUHAQEERjBEMCAGCCsGAQUFBzABhhRodHRwOi8vb2NzcC5teS5ob3N0LzAg
BggrBgEFBQcwAoYUaHR0cDovL215LmNhL2NhLmh0bWwwDAYDVR0TAQH/BAIwADAN
BgkqhkiG9w0BAQsFAAOCAQEAVtD6OeF0e4y6LtxVkHR/Tuvgs+NkWVYcfw/jL8Bm
ejUWWYuJFbE1io5NFEG7maXjcA/sN8DsBzr1wc5aZFs1VrlxvEOxjYmtUFJVHAdY
Ct9vxX6p9dAjcvlycGje7jWY0kBxLF3Pg63kXJuhWlCpk9nPcimM9tFNiuoO2pgi
jUO/desupGWpmZ0LkNTGOBAhTD6aOXBCZqj+bS4xjTvmQ8kU7OgJfZfabNUVa9wo
XE/72dE3jEkawdx3LozrKsMHlYogz7qIRkN018fARyfdUUYqZqGgMOsra5UwJKhu
BBi3cI6riAiOgM+BYUz7SySwShxFZKpyKGiuYiCz3Vnqmw==
-----END CERTIFICATE-----