Certificate:
    Data:
        Version: 3 (0x2)
        Serial Number:
            a0:60:55:94:f7:44:83:2c:d7:c7:44:d6:2b:de:81:25
    Signature Algorithm: sha256WithRSAEncryption
        Issuer: C=US, ST=CA, O=Aerospike, Inc., OU=Engineering Test, CN=Chain Signing Cert
        Validity
            Not Before: Nov  5 20:06:01 2020 GMT
            Not After : Nov  4 20:06:01 2024 GMT
        Subject: C=US, ST=CA, O=Aerospike, Inc., OU=Cluster Name Test, CN=bob-cluster-a
        Subject Public Key Info:
            Public Key Algorithm: rsaEncryption
                Public-Key: (2048 bit)
                Modulus:
                    00:ea:38:e7:cc:6d:27:61:a8:a4:42:f2:d1:88:f5:
                    a9:4f:bb:27:25:5b:c9:fd:6c:68:09:72:e0:b8:b5:
                    1f:76:ac:3b:49:8d:29:9f:fb:da:15:9f:b3:a8:14:
                    71:6a:dd:e5:ec:7f:e4:7e:ee:38:7b:81:d7:4d:e2:
                    4a:e7:40:e7:f9:d5:f7:e2:f6:18:c1:47:06:96:84:
                    6a:da:89:d8:28:ee:ba:9a:4d:79:fc:3b:41:a6:c7:
                    fe:57:dd:4f:d6:33:4e:54:c2:8c:b6:53:69:11:a5:
                    f2:16:45:3e:4f:15:5c:93:f2:88:ed:6c:5d:cd:87:
                    98:ca:d7:ae:87:b3:45:7a:45:ca:3a:9a:b3:6b:86:
                    53:4d:03:07:51:6f:bc:45:18:36:4b:79:66:78:79:
                    4a:68:39:fc:25:5f:88:b2:c8:fa:f5:cb:5b:a5:d0:
                    8a:6e:92:c4:6a:3c:13:63:91:65:d8:d5:f3:dc:85:
                    e0:7c:da:d7:cb:97:2b:35:15:f0:2e:d8:84:df:b9:
                    c7:8f:a4:1a:7c:d5:20:3e:fc:6d:fe:e8:c0:2a:1f:
                    52:da:d4:85:5d:d2:22:04:ff:fd:10:37:23:a7:ce:
                    32:10:89:68:80:6b:2f:c5:23:76:d0:61:5a:0d:4b:
                    c2:00:a9:a4:db:b5:4e:30:d2:f4:2c:0a:9e:98:12:
                    4f:67
                Exponent: 65537 (0x10001)
        X509v3 extensions:
            X509v3 Authority Key Identifier: 
                keyid:BC:72:1F:3D:E6:B5:5C:BD:B9:2E:98:5E:FD:53:F7:F1:EA:17:70:96

            X509v3 Subject Key Identifier: 
                F0:95:07:CE:83:F0:9E:AA:8E:D8:4C:1B:4B:09:BD:20:9F:D4:71:C9
            X509v3 Key Usage: critical
                Digital Signature, Key Encipherment
            X509v3 Extended Key Usage: 
                TLS Web Server Authentication, TLS Web Client Authentication
            X509v3 CRL Distribution Points: 

                Full Name:
                  URI:http://myhost.com/myca1.crl

                Full Name:
                  URI:http://myhost.com/myca2.crl

            X509v3 Certificate Policies: 
                Policy: 2.16.840.1.114412.1.1
                  CPS: https://myhost.com/CPS
                Policy: 2.23.140.1.2.2

            Authority Information Access: 
                OCSP - URI:http://ocsp.my.host/
                CA Issuers - URI:http://my.ca/ca.html

            X509v3 Basic Constraints: critical
                CA:FALSE
    Signature Algorithm: sha256WithRSAEncryption
         3c:dc:75:16:ad:a1:d3:e9:f8:05:45:4b:5c:1c:79:6b:e5:6d:
         7e:43:ba:62:1a:f9:e0:98:41:ec:ca:ae:a6:3f:cc:c2:81:89:
         cc:47:43:fd:75:b0:a9:85:24:f3:c8:d7:62:7b:1c:66:6a:2a:
         ea:45:e1:f1:d6:b5:ea:46:fa:d9:10:9f:bb:29:06:98:a2:3a:
         e8:78:20:73:55:63:a7:d2:69:a3:e8:82:b2:86:44:1d:e5:6b:
         5b:4b:3d:b5:e2:f0:b7:92:d0:86:53:5e:07:09:54:28:28:9d:
         46:f8:73:f1:a3:f6:4f:00:3d:b1:ec:e7:10:5a:7a:5d:f3:fa:
         b8:88:c1:c2:b5:4b:cd:0d:38:3e:97:e7:ef:18:f2:55:21:77:
         47:02:f7:e8:6f:55:fb:58:48:f5:73:c8:a6:74:f5:e1:a0:35:
         e0:9f:e9:88:3a:c5:ac:a7:d0:11:e7:9f:cb:39:d7:5a:aa:cf:
         c4:98:dc:75:32:b8:98:a4:8f:53:e0:62:ed:62:49:04:2b:27:
         41:58:44:9d:0c:3b:8f:4c:12:98:dc:d0:a8:09:a3:4f:c2:86:
         e0:f8:0c:63:ca:c4:2e:73:fc:58:bf:8e:34:56:44:b9:11:62:
         e4:e7:e7:48:ff:98:21:bf:54:f5:56:91:8f:dc:d1:38:d7:f2:
         08:63:c9:1a
-----BEGIN CERTIFICATE-----
MIIEzzCCA7egAwIBAgIRAKBgVZT3RIMs18dE1ivegSUwDQYJKoZIhvcNAQELBQAw
bDELMAkGA1UEBhMCVVMxCzAJBgNVBAgMAkNBMRgwFgYDVQQKDA9BZXJvc3Bpa2Us
IEluYy4xGTAXBgNVBAsMEEVuZ2luZWVyaW5nIFRlc3QxGzAZBgNVBAMMEkNoYWlu
IFNpZ25pbmcgQ2VydDAeFw0yMDExMDUyMDA2MDFaFw0yNDExMDQyMDA2MDFaMGgx
CzAJBgNVBAYTAlVTMQswCQYDVQQIDAJDQTEYMBYGA1UECgwPQWVyb3NwaWtlLCBJ
bmMuMRowGAYDVQQLDBFDbHVzdGVyIE5hbWUgVGVzdDEWMBQGA1UEAwwNYm9iLWNs
dXN0ZXItYTCCASIwDQYJKoZIhvcNAQEBBQADggEPADCCAQoCggEBAOo458xtJ2Go
pELy0Yj1qU+7JyVbyf1saAly4Li1H3asO0mNKZ/72hWfs6gUcWrd5ex/5H7uOHuB
103iSudA5/nV9+L2GMFHBpaEatqJ2CjuuppNefw7QabH/lfdT9YzTlTCjLZTaRGl
8hZFPk8VXJPyiO1sXc2HmMrXroezRXpFyjqas2uGU00DB1FvvEUYNkt5Znh5Smg5
/CVfiLLI+vXLW6XQim6SxGo8E2ORZdjV89yF4Hza18uXKzUV8C7YhN+5x4+kGnzV
ID78bf7owCofUtrUhV3SIgT//RA3I6fOMhCJaIBrL8UjdtBhWg1LwgCppNu1TjDS
9CwKnpgST2cCAwEAAaOCAW4wggFqMB8GA1UdIwQYMBaAFLxyHz3mtVy9uS6YXv1T
9/HqF3CWMB0GA1UdDgQWBBTwlQfOg/Ceqo7YTBtLCb0gn9RxyTAOBgNVHQ8BAf8E
BAMCBaAwHQYDVR0lBBYwFAYIKwYBBQUHAwEGCCsGAQUFBwMCME8GA1UdHwRIMEYw
IaAfoB2GG2h0dHA6Ly9teWhvc3QuY29tL215Y2ExLmNybDAhoB+gHYYbaHR0cDov
L215aG9zdC5jb20vbXljYTIuY3JsMEYGA1UdIAQ/MD0wMQYJYIZIAYb9bAEBMCQw
IgYIKwYBBQUHAgEWFmh0dHBzOi8vbXlob3N0LmNvbS9DUFMwCAYGZ4EMAQICMFIG
CCsGAQUFBwEBBEYwRDAgBggrBgEFBQcwAYYUaHR0cDovL29jc3AubXkuaG9zdC8w
IAYIKwYBBQUHMAKGFGh0dHA6Ly9teS5jYS9jYS5odG1sMAwGA1UdEwEB/wQCMAAw
DQYJKoZIhvcNAQELBQADggEBADzcdRatodPp+AVFS1wceWvlbX5DumIa+eCYQezK
rqY/zMKBicxHQ/11sKmFJPPI12J7HGZqKupF4fHWtepG+tkQn7spBpiiOuh4IHNV
Y6fSaaPogrKGRB3la1tLPbXi8LeS0IZTXgcJVCgonUb4c/Gj9k8APbHs5xBael3z
+riIwcK1S80NOD6X5+8Y8lUhd0cC9+hvVftYSPVzyKZ09eGgNeCf6Yg6xayn0BHn
n8s511qqz8SY3HUyuJikj1PgYu1iSQQrJ0FYRJ0MO49MEpjc0KgJo0/ChuD4DGPK
xC5z/Fi/jjRWRLkRYuTn50j/mCG/VPVWkY/c0TjX8ghjyRo=
-----END CERTIFICATE-----
Certificate:
    Data:
        Version: 3 (0x2)
        Serial Number:
            74:1c:15:a7:eb:cf:32:43:a9:06:23:7b:91:27:17:b2
    Signature Algorithm: sha256WithRSAEncryption
        Issuer: C=US, ST=CA, L=Mountain View, O=Aerospike, Inc., OU=Engineering Test, CN=Root CA
        Validity
            Not Before: Nov  5 20:06:00 2020 GMT
            Not After : Nov  4 20:06:00 2024 GMT
        Subject: C=US, ST=CA, O=Aerospike, Inc., OU=Engineering Test, CN=Chain Signing Cert
        Subject Public Key Info:
            Public Key Algorithm: rsaEncryption
                Public-Key: (2048 bit)
                Modulus:
                    00:b4:f0:1a:07:98:ab:c8:43:ea:b6:f5:34:2d:a5:
                    2b:2e:8e:f1:e1:fc:f7:6e:8c:a7:50:b9:fb:55:da:
                    23:44:ff:2d:e0:68:de:a4:f8:74:47:ef:46:01:11:
                    50:22:7e:bd:d7:38:ba:31:e6:d5:72:78:1e:45:47:
                    49:1b:27:7a:10:1b:f9:34:75:01:44:55:37:be:c8:
                    e7:b4:9f:01:68:f3:e6:4f:35:a5:38:9e:87:8f:1f:
                    53:ea:0b:0b:1d:63:d9:45:1f:4d:be:36:90:ac:b4:
                    af:c7:4d:39:ab:5b:42:e5:81:d7:c8:95:e3:76:7a:
                    fd:86:c4:26:13:2b:27:27:1d:e9:ee:cd:6c:cc:41:
                    47:b1:a5:4e:fb:4d:30:bb:ba:68:1a:3c:e8:71:94:
                    f1:ae:3f:8c:5e:be:72:72:97:3e:e5:f0:1b:d0:f7:
                    5c:14:14:54:3d:2d:3c:0d:75:7f:3d:54:b0:a8:f0:
                    3e:68:c5:b8:5d:35:71:c0:b5:66:88:6a:9e:af:14:
                    34:1f:2f:4d:c6:f2:73:3a:d8:47:9e:b6:d7:b1:54:
                    74:b9:21:1f:62:18:10:ad:09:19:51:65:5b:4f:b2:
                    1a:54:5c:86:c4:42:45:97:d5:2f:2e:54:71:cc:52:
                    76:af:dd:e2:21:a0:ee:9a:4d:2b:79:47:8a:47:30:
                    7f:c7
                Exponent: 65537 (0x10001)
        X509v3 extensions:
            X509v3 Basic Constraints: critical
                CA:TRUE, pathlen:0
            X509v3 Key Usage: critical
                Digital Signature, Key Encipherment, Certificate Sign, CRL Sign
            X509v3 Extended Key Usage: 
                TLS Web Server Authentication, TLS Web Client Authentication
            Authority Information Access: 
                OCSP - URI:http://ocsp.my.host/

            X509v3 CRL Distribution Points: 

                Full Name:
                  URI:http://myhost.com/myca.crl

            X509v3 Certificate Policies: 
                Policy: X509v3 Any Policy
                  CPS: https://myhost.com/CPS

            X509v3 Subject Key Identifier: 
                BC:72:1F:3D:E6:B5:5C:BD:B9:2E:98:5E:FD:53:F7:F1:EA:17:70:96
            X509v3 Authority Key Identifier: 
                keyid:CB:DD:69:7B:6D:3D:C7:6F:36:C0:EB:AF:4C:26:4D:3E:E0:97:53:61

    Signature Algorithm: sha256WithRSAEncryption
         01:c9:f8:3e:bd:55:a0:3b:39:81:5e:c3:81:59:c0:40:31:6e:
         a9:db:47:0e:76:84:63:21:84:67:f8:b2:fc:77:2d:0f:9b:b7:
         a5:9d:e4:3e:c9:8b:a3:30:a8:34:81:d4:48:0a:b4:a7:19:42:
         a9:5a:35:94:32:c3:a7:7a:d7:50:6c:6d:c8:d2:7f:3e:0c:54:
         1e:c0:06:7c:2c:c6:82:f4:1e:5b:9f:42:de:4b:cb:38:59:4c:
         17:0a:a0:d0:db:5d:2c:58:a9:63:cc:c0:6c:17:a8:a4:8b:f7:
         6c:3f:11:ca:2b:2d:db:5b:03:ad:fd:23:5c:ae:30:26:96:b6:
         8f:04:b9:51:89:29:22:4e:91:82:ef:20:26:8c:ff:02:54:64:
         31:01:ce:81:01:8c:ab:34:05:b3:4a:38:97:56:29:74:a1:ea:
         57:25:d4:9c:f5:27:97:bc:80:9a:c5:df:f9:c0:53:4d:34:75:
         df:e5:23:7f:16:11:70:83:99:9b:b4:3e:d7:13:f1:78:b7:37:
         bd:2e:66:a4:53:d9:c7:7c:93:a9:c9:fc:49:0a:e2:4f:3f:9d:
         50:d9:21:33:52:e6:e5:60:a5:ca:3f:d9:75:0e:55:0a:3e:0f:
         7a:4a:e6:e4:8a:fe:a9:0d:f2:0d:a1:bf:ad:a6:b8:4d:6c:34:
         36:fc:2c:b6
-----BEGIN CERTIFICATE-----
MIIEkDCCA3igAwIBAgIQdBwVp+vPMkOpBiN7kScXsjANBgkqhkiG9w0BAQsFADB5
MQswCQYDVQQGEwJVUzELMAkGA1UECAwCQ0ExFjAUBgNVBAcMDU1vdW50YWluIFZp
ZXcxGDAWBgNVBAoMD0Flcm9zcGlrZSwgSW5jLjEZMBcGA1UECwwQRW5naW5lZXJp
bmcgVGVzdDEQMA4GA1UEAwwHUm9vdCBDQTAeFw0yMDExMDUyMDA2MDBaFw0yNDEx
MDQyMDA2MDBaMGwxCzAJBgNVBAYTAlVTMQswCQYDVQQIDAJDQTEYMBYGA1UECgwP
QWVyb3NwaWtlLCBJbmMuMRkwFwYDVQQLDBBFbmdpbmVlcmluZyBUZXN0MRswGQYD
VQQDDBJDaGFpbiBTaWduaW5nIENlcnQwggEiMA0GCSqGSIb3DQEBAQUAA4IBDwAw
ggEKAoIBAQC08BoHmKvIQ+q29TQtpSsujvHh/PdujKdQuftV2iNE/y3gaN6k+HRH
70YBEVAifr3XOLox5tVyeB5FR0kbJ3oQG/k0dQFEVTe+yOe0nwFo8+ZPNaU4noeP
H1PqCwsdY9lFH02+NpCstK/HTTmrW0LlgdfIleN2ev2GxCYTKycnHenuzWzMQUex
pU77TTC7umgaPOhxlPGuP4xevnJylz7l8BvQ91wUFFQ9LTwNdX89VLCo8D5oxbhd
NXHAtWaIap6vFDQfL03G8nM62EeettexVHS5IR9iGBCtCRlRZVtPshpUXIbEQkWX
1S8uVHHMUnav3eIhoO6aTSt5R4pHMH/HAgMBAAGjggEfMIIBGzASBgNVHRMBAf8E
CDAGAQH/AgEAMA4GA1UdDwEB/wQEAwIBpjAdBgNVHSUEFjAUBggrBgEFBQcDAQYI
KwYBBQUHAwIwMAYIKwYBBQUHAQEEJDAiMCAGCCsGAQUFBzABhhRodHRwOi8vb2Nz
cC5teS5ob3N0LzArBgNVHR8EJDAiMCCgHqAchhpodHRwOi8vbXlob3N0LmNvbS9t
eWNhLmNybDA3BgNVHSAEMDAuMCwGBFUdIAAwJDAiBggrBgEFBQcCARYWaHR0cHM6
Ly9teWhvc3QuY29tL0NQUzAdBgNVHQ4EFgQUvHIfPea1XL25Lphe/VP38eoXcJYw
HwYDVR0jBBgwFoAUy91pe209x282wOuvTCZNPuCXU2EwDQYJKoZIhvcNAQELBQAD
ggEBAAHJ+D69VaA7OYFew4FZwEAxbqnbRw52hGMhhGf4svx3LQ+bt6Wd5D7Ji6Mw
qDSB1EgKtKcZQqlaNZQyw6d611BsbcjSfz4MVB7ABnwsxoL0HlufQt5LyzhZTBcK
oNDbXSxYqWPMwGwXqKSL92w/EcorLdtbA639I1yuMCaWto8EuVGJKSJOkYLvICaM
/wJUZDEBzoEBjKs0BbNKOJdWKXSh6lcl1Jz1J5e8gJrF3/nAU000dd/lI38WEXCD
mZu0PtcT8Xi3N70uZqRT2cd8k6nJ/EkK4k8/nVDZITNS5uVgpco/2XUOVQo+D3pK
5uSK/qkN8g2hv62muE1sNDb8LLY=
-----END CERTIFICATE-----