-----BEGIN CERTIFICATE-----
MIID1jCCAr6gAwIBAgIEaPIdDTANBgkqhkiG9w0BAQsFADBsMQswCQYDVQQGEwJV
UzELMAkGA1UECAwCQ0ExGDAWBgNVBAoMD0Flcm9zcGlrZSwgSW5jLjEZMBcGA1UE
CwwQRW5naW5lZXJpbmcgVGVzdDEbMBkGA1UEAwwSQ2hhaW4gU2lnbmluZyBDZXJ0
MB4XDTI1MTAxNzEwNDAxM1oXDTM1MTAxNTEwNDAxM1owXzELMAkGA1UEBhMCVVMx
CzAJBgNVBAgMAkNBMRgwFgYDVQQKDA9BZXJvc3Bpa2UsIEluYy4xGTAXBgNVBAsM
EFRlc3QgTXVsdGlTZXJ2ZXIxDjAMBgNVBAMMBWFkbWluMIIBIjANBgkqhkiG9w0B
AQEFAAOCAQ8AMIIBCgKCAQEAv/my+VQqL+1VGZADOaWguDV6+rzWRh3VH2JQryQ+
8eeO4LOCg3bZwdnKzLU+XrdfUTsVdaUTQmk86MHpIfxWVWdBR4Exb7kZrxsjA+ht
bZpzpHTlNM8SEwQIX8aZ8w3t9w7xzuY3GXj1Q34JO1V0WwYY5oC1RVgTmk0aEcy8
0vzMxkuX/XHp1WWAfDCQqbftOr0f6wiSpV3Tb7Vdlz84W3uyLWxIGWvOz4sxwYP+
E/HXlLIs1uJcKZdfQBx4nKYyVPSynzoTg3YMo1MvfSQtY2lxUfRMAbQrGTe1kgJc
Nkh1ynJElOr42UQwiPxRGZyKfaXeGJZ3H6iY24tBn32M8QIDAQABo4GMMIGJMAkG
A1UdEwQCMAAwCwYDVR0PBAQDAgWgMB0GA1UdJQQWMBQGCCsGAQUFBwMCBggrBgEF
BQcDATAQBgNVHREECTAHggVhZG1pbjAdBgNVHQ4EFgQULMNP6GTsdiioPZD7PHvc
zKh/iKEwHwYDVR0jBBgwFoAUU68djgUtfPPnuDMDeTE+lQ8X20UwDQYJKoZIhvcN
AQELBQADggEBAFxSPOVn3Onc/H3/wwSUSr3fwxwZ205xYFTzRTZ7zFCUqPMHsfel
lf9FaxWZFVAyMn2N+XK6o91J4Dpr/jUOUFEOAmad62G88hfrHykbNJnFjJoU1GYv
VsUZ501n+Txyg1QNkCuWcICK5idC7c4AU7IdTOBcU6C9ln8jGTamkmI8VZNAdqXW
FndMaT6Zp5EazbNF/fFALZJzcdkqm45C8u5OdaqNYlVevs6Qdb6nmn4W+l8gGms2
YQy0BQ9nTIj6xqSCXnXXKx3QTb7IgOiGFFgbjAU7MFWKb0h3Dy+UePdGBZRA3dUP
iDIZt2j9QZlCHEelMsmlJEws84x1aDiA29g=
-----END CERTIFICATE-----
Certificate:
    Data:
        Version: 3 (0x2)
        Serial Number:
            48:b4:2a:fd:08:c2:9c:b9:6b:3c:53:fd:26:6e:52:e7
        Signature Algorithm: sha256WithRSAEncryption
        Issuer: C=US, ST=CA, L=Mountain View, O=Aerospike, Inc., OU=Engineering Test, CN=Root CA
        Validity
            Not Before: Nov  5 12:18:46 2024 GMT
            Not After : Nov  4 12:18:46 2028 GMT
        Subject: C=US, ST=CA, O=Aerospike, Inc., OU=Engineering Test, CN=Chain Signing Cert
        Subject Public Key Info:
            Public Key Algorithm: rsaEncryption
                Public-Key: (2048 bit)
                Modulus:
                    00:d2:c0:21:76:0b:4a:64:e8:f4:74:10:af:5c:e1:
                    16:b0:60:d0:75:d0:84:b7:c3:99:6e:06:39:5c:44:
                    ec:8a:38:b2:8e:46:13:0a:81:93:06:72:1c:ec:d0:
                    fb:4d:a1:c6:2f:f1:7d:46:76:f5:d2:8d:c7:f8:ce:
                    9f:ca:bf:5f:4a:dc:82:a4:62:2c:8e:2c:ed:3c:b7:
                    de:9f:66:d5:b0:69:ab:7e:02:7d:fc:5d:19:d7:76:
                    20:1f:d9:ff:b9:bb:4d:99:9d:8a:99:69:20:fc:01:
                    b6:48:a0:bc:26:cf:9b:15:42:1f:7f:4d:99:4b:84:
                    6b:f0:21:2c:1b:30:42:84:5b:f4:50:fa:05:31:ee:
                    7a:39:18:8f:4b:ab:b1:4d:df:47:35:18:d9:53:b4:
                    90:a1:0e:fe:70:ae:5f:5b:a0:77:a6:b8:cd:44:9a:
                    3f:a8:d8:44:fd:75:36:c8:52:81:52:af:f0:5b:dc:
                    72:c6:45:9c:2e:d0:d3:b4:4f:fe:fe:f2:c7:34:22:
                    8d:b7:14:7e:59:b8:bf:f0:02:86:af:f4:02:48:c5:
                    f0:9a:58:9b:f0:20:01:1c:32:e9:4b:dc:7b:c7:62:
                    91:56:e9:97:b6:1f:8a:b6:b8:98:85:71:1e:aa:1f:
                    2e:18:29:36:da:a5:df:6b:ec:0d:a1:7e:11:0e:94:
                    8e:cd
                Exponent: 65537 (0x10001)
        X509v3 extensions:
            X509v3 Basic Constraints: critical
                CA:TRUE, pathlen:0
            X509v3 Key Usage: critical
                Digital Signature, Key Encipherment, Certificate Sign, CRL Sign
            X509v3 Extended Key Usage: 
                TLS Web Server Authentication, TLS Web Client Authentication
            Authority Information Access: 
                OCSP - URI:http://ocsp.my.host/
            X509v3 CRL Distribution Points: 
                Full Name:
                  URI:http://myhost.com/myca.crl
            X509v3 Certificate Policies: 
                Policy: X509v3 Any Policy
                  CPS: https://myhost.com/CPS
            X509v3 Subject Key Identifier: 
                53:AF:1D:8E:05:2D:7C:F3:E7:B8:33:03:79:31:3E:95:0F:17:DB:45
            X509v3 Authority Key Identifier: 
                CD:4E:D3:E5:CB:DE:5D:E7:20:B5:16:7D:A0:51:74:0B:EF:75:71:76
    Signature Algorithm: sha256WithRSAEncryption
    Signature Value:
        0c:a3:4f:64:06:e6:2c:21:fb:d9:c6:52:68:16:c4:1b:cf:fe:
        b9:76:06:91:83:d1:da:98:7e:b8:ce:75:2a:6d:fd:2c:c3:f8:
        24:00:53:0e:15:58:dc:7e:1f:d0:5b:91:d9:36:d7:59:fe:fd:
        3e:c6:d5:2f:c5:c1:1d:3b:d8:be:d7:f7:31:d0:40:42:86:5b:
        87:f3:45:e5:68:a0:5e:be:88:7e:6d:7c:90:22:5b:84:77:34:
        b1:1d:38:4b:cc:81:85:6b:10:76:66:56:42:93:fd:53:ca:e4:
        eb:fc:8f:0a:01:d7:1b:37:ae:c5:43:c6:3a:29:db:0e:e2:dd:
        8d:97:15:47:a8:c1:e8:59:4e:61:c4:82:85:76:84:26:74:97:
        36:22:91:93:74:46:d4:c7:75:d7:7a:25:5b:50:cb:e5:9c:e5:
        98:de:65:82:52:db:84:84:cb:25:c2:c8:95:21:23:0b:f1:2e:
        8e:bb:9d:f0:a0:c2:6b:bd:2b:3a:92:ff:0a:a9:1c:d3:a4:a6:
        9f:8d:e2:2c:4c:4a:2c:13:50:9f:ec:d0:c4:cf:3c:e6:85:a7:
        50:e4:a7:fe:09:bd:e2:9b:f9:96:04:1b:18:9a:18:fc:3c:f1:
        08:5d:0c:00:aa:97:b1:0a:ca:fa:92:49:6c:c5:73:94:2c:a0:
        41:46:1f:a0
-----BEGIN CERTIFICATE-----
MIIEkDCCA3igAwIBAgIQSLQq/QjCnLlrPFP9Jm5S5zANBgkqhkiG9w0BAQsFADB5
MQswCQYDVQQGEwJVUzELMAkGA1UECAwCQ0ExFjAUBgNVBAcMDU1vdW50YWluIFZp
ZXcxGDAWBgNVBAoMD0Flcm9zcGlrZSwgSW5jLjEZMBcGA1UECwwQRW5naW5lZXJp
bmcgVGVzdDEQMA4GA1UEAwwHUm9vdCBDQTAeFw0yNDExMDUxMjE4NDZaFw0yODEx
MDQxMjE4NDZaMGwxCzAJBgNVBAYTAlVTMQswCQYDVQQIDAJDQTEYMBYGA1UECgwP
QWVyb3NwaWtlLCBJbmMuMRkwFwYDVQQLDBBFbmdpbmVlcmluZyBUZXN0MRswGQYD
VQQDDBJDaGFpbiBTaWduaW5nIENlcnQwggEiMA0GCSqGSIb3DQEBAQUAA4IBDwAw
ggEKAoIBAQDSwCF2C0pk6PR0EK9c4RawYNB10IS3w5luBjlcROyKOLKORhMKgZMG
chzs0PtNocYv8X1GdvXSjcf4zp/Kv19K3IKkYiyOLO08t96fZtWwaat+An38XRnX
diAf2f+5u02ZnYqZaSD8AbZIoLwmz5sVQh9/TZlLhGvwISwbMEKEW/RQ+gUx7no5
GI9Lq7FN30c1GNlTtJChDv5wrl9boHemuM1Emj+o2ET9dTbIUoFSr/Bb3HLGRZwu
0NO0T/7+8sc0Io23FH5ZuL/wAoav9AJIxfCaWJvwIAEcMulL3HvHYpFW6Ze2H4q2
uJiFcR6qHy4YKTbapd9r7A2hfhEOlI7NAgMBAAGjggEfMIIBGzASBgNVHRMBAf8E
CDAGAQH/AgEAMA4GA1UdDwEB/wQEAwIBpjAdBgNVHSUEFjAUBggrBgEFBQcDAQYI
KwYBBQUHAwIwMAYIKwYBBQUHAQEEJDAiMCAGCCsGAQUFBzABhhRodHRwOi8vb2Nz
cC5teS5ob3N0LzArBgNVHR8EJDAiMCCgHqAchhpodHRwOi8vbXlob3N0LmNvbS9t
eWNhLmNybDA3BgNVHSAEMDAuMCwGBFUdIAAwJDAiBggrBgEFBQcCARYWaHR0cHM6
Ly9teWhvc3QuY29tL0NQUzAdBgNVHQ4EFgQUU68djgUtfPPnuDMDeTE+lQ8X20Uw
HwYDVR0jBBgwFoAUzU7T5cveXecgtRZ9oFF0C+91cXYwDQYJKoZIhvcNAQELBQAD
ggEBAAyjT2QG5iwh+9nGUmgWxBvP/rl2BpGD0dqYfrjOdSpt/SzD+CQAUw4VWNx+
H9Bbkdk211n+/T7G1S/FwR072L7X9zHQQEKGW4fzReVooF6+iH5tfJAiW4R3NLEd
OEvMgYVrEHZmVkKT/VPK5Ov8jwoB1xs3rsVDxjop2w7i3Y2XFUeowehZTmHEgoV2
hCZ0lzYikZN0RtTHddd6JVtQy+Wc5ZjeZYJS24SEyyXCyJUhIwvxLo67nfCgwmu9
KzqS/wqpHNOkpp+N4ixMSiwTUJ/s0MTPPOaFp1Dkp/4JveKb+ZYEGxiaGPw88Qhd
DACql7EKyvqSSWzFc5QsoEFGH6A=
-----END CERTIFICATE-----