Certificate:
    Data:
        Version: 3 (0x2)
        Serial Number:
            10:7c:42:36:0b:61:cc:97:b8:f2:22:fd:4d:68:21:f5:25:e6:02:d7
        Signature Algorithm: sha256WithRSAEncryption
        Issuer: C=US, ST=CA, L=Mountain View, O=Aerospike, Inc., OU=Engineering Test, CN=Root CA
        Validity
            Not Before: Nov  5 12:18:46 2024 GMT
            Not After : Nov  5 12:18:46 2044 GMT
        Subject: C=US, ST=CA, L=Mountain View, O=Aerospike, Inc., OU=Engineering Test, CN=Root CA
        Subject Public Key Info:
            Public Key Algorithm: rsaEncryption
                Public-Key: (2048 bit)
                Modulus:
                    00:a6:aa:32:58:53:fe:52:84:fb:35:3f:34:2c:a2:
                    99:94:b2:43:7e:fd:45:36:f8:37:a7:15:3b:cf:24:
                    c9:ba:28:58:53:0f:25:be:8a:3f:ea:f1:92:e4:e2:
                    eb:85:12:0e:34:87:a7:0f:b9:a1:48:22:28:81:9d:
                    9f:53:ef:53:a7:e0:10:f3:c7:e2:a3:ce:c5:4f:33:
                    43:ac:4b:c8:66:c9:fb:7d:e9:8a:c0:7a:1e:aa:f6:
                    8e:9a:b4:e4:ea:d9:62:35:eb:d6:b6:ad:6c:ac:2b:
                    41:43:af:23:1d:a8:78:a4:ee:a8:b7:92:12:64:16:
                    62:e5:54:70:ab:cd:d8:f0:81:21:e0:87:a5:6f:0f:
                    cd:90:56:ca:e4:85:85:4d:2d:13:1b:1f:1a:1c:dd:
                    1c:c4:e1:d7:30:57:50:b6:83:24:ff:36:bb:80:6d:
                    6c:12:5c:f8:3c:bb:0b:04:8a:37:c4:16:71:d3:3b:
                    e2:95:20:cc:8f:1f:be:1f:12:06:5a:59:28:f6:8b:
                    0d:63:53:65:c1:01:7a:dd:2f:ca:8f:05:e1:ce:91:
                    91:b1:fe:03:af:86:3e:79:00:67:76:f8:3a:58:b3:
                    6a:22:32:25:8e:af:49:bf:53:fe:70:7a:42:0b:96:
                    d3:ef:23:41:3f:99:5e:8f:9f:24:4d:c0:32:ab:69:
                    a6:f5
                Exponent: 65537 (0x10001)
        X509v3 extensions:
            X509v3 Key Usage: critical
                Digital Signature, Certificate Sign, CRL Sign
            X509v3 Basic Constraints: critical
                CA:TRUE
            X509v3 Subject Key Identifier: 
                CD:4E:D3:E5:CB:DE:5D:E7:20:B5:16:7D:A0:51:74:0B:EF:75:71:76
            X509v3 Authority Key Identifier: 
                CD:4E:D3:E5:CB:DE:5D:E7:20:B5:16:7D:A0:51:74:0B:EF:75:71:76
    Signature Algorithm: sha256WithRSAEncryption
    Signature Value:
        a2:8d:c5:8d:84:79:b8:ab:4b:48:68:68:f4:a2:42:47:32:cf:
        81:29:e5:08:7b:8e:6b:2b:4b:91:9c:7a:6c:01:40:94:c8:9f:
        f1:1c:92:50:42:29:85:d9:ab:81:59:c0:1b:53:78:52:f5:53:
        b9:2d:37:76:20:0b:c2:fb:ba:31:b5:50:3e:e9:29:e9:d5:33:
        19:82:e2:91:d0:4a:63:98:f6:cf:fb:58:76:0d:1a:c9:e1:ce:
        30:0e:0d:6b:73:0c:c0:8d:e1:52:73:49:39:61:ff:e9:fa:46:
        75:5b:ca:4d:83:e1:18:d0:5b:a3:06:b4:7c:3e:6e:43:cd:ab:
        6c:e5:69:3d:8e:51:93:1f:16:63:6d:70:b5:85:76:47:04:fb:
        ce:47:89:26:c2:42:a5:b4:3d:92:2c:85:9a:fd:49:e9:f9:a3:
        5b:a2:de:94:32:37:c8:c7:d8:8a:90:32:27:ee:a3:cb:c3:cf:
        63:3d:c3:89:87:d3:f7:75:d2:78:f9:7b:67:2f:d6:33:d6:f2:
        96:f2:bc:43:8d:3d:d7:05:0c:b5:1b:f9:b7:a0:00:51:1f:33:
        ae:ee:73:e7:b7:24:86:1b:b9:b5:bf:43:a0:b3:bd:dd:f8:cd:
        59:a1:02:04:bc:47:47:e3:bd:ab:c7:a5:49:29:6a:ba:d1:e8:
        96:01:76:71
-----BEGIN CERTIFICATE-----
MIID4zCCAsugAwIBAgIUEHxCNgthzJe48iL9TWgh9SXmAtcwDQYJKoZIhvcNAQEL
BQAweTELMAkGA1UEBhMCVVMxCzAJBgNVBAgMAkNBMRYwFAYDVQQHDA1Nb3VudGFp
biBWaWV3MRgwFgYDVQQKDA9BZXJvc3Bpa2UsIEluYy4xGTAXBgNVBAsMEEVuZ2lu
ZWVyaW5nIFRlc3QxEDAOBgNVBAMMB1Jvb3QgQ0EwHhcNMjQxMTA1MTIxODQ2WhcN
NDQxMTA1MTIxODQ2WjB5MQswCQYDVQQGEwJVUzELMAkGA1UECAwCQ0ExFjAUBgNV
BAcMDU1vdW50YWluIFZpZXcxGDAWBgNVBAoMD0Flcm9zcGlrZSwgSW5jLjEZMBcG
A1UECwwQRW5naW5lZXJpbmcgVGVzdDEQMA4GA1UEAwwHUm9vdCBDQTCCASIwDQYJ
KoZIhvcNAQEBBQADggEPADCCAQoCggEBAKaqMlhT/lKE+zU/NCyimZSyQ379RTb4
N6cVO88kybooWFMPJb6KP+rxkuTi64USDjSHpw+5oUgiKIGdn1PvU6fgEPPH4qPO
xU8zQ6xLyGbJ+33pisB6Hqr2jpq05OrZYjXr1ratbKwrQUOvIx2oeKTuqLeSEmQW
YuVUcKvN2PCBIeCHpW8PzZBWyuSFhU0tExsfGhzdHMTh1zBXULaDJP82u4BtbBJc
+Dy7CwSKN8QWcdM74pUgzI8fvh8SBlpZKPaLDWNTZcEBet0vyo8F4c6RkbH+A6+G
PnkAZ3b4OlizaiIyJY6vSb9T/nB6QguW0+8jQT+ZXo+fJE3AMqtppvUCAwEAAaNj
MGEwDgYDVR0PAQH/BAQDAgGGMA8GA1UdEwEB/wQFMAMBAf8wHQYDVR0OBBYEFM1O
0+XL3l3nILUWfaBRdAvvdXF2MB8GA1UdIwQYMBaAFM1O0+XL3l3nILUWfaBRdAvv
dXF2MA0GCSqGSIb3DQEBCwUAA4IBAQCijcWNhHm4q0tIaGj0okJHMs+BKeUIe45r
K0uRnHpsAUCUyJ/xHJJQQimF2auBWcAbU3hS9VO5LTd2IAvC+7oxtVA+6Snp1TMZ
guKR0EpjmPbP+1h2DRrJ4c4wDg1rcwzAjeFSc0k5Yf/p+kZ1W8pNg+EY0FujBrR8
Pm5Dzats5Wk9jlGTHxZjbXC1hXZHBPvOR4kmwkKltD2SLIWa/Unp+aNbot6UMjfI
x9iKkDIn7qPLw89jPcOJh9P3ddJ4+XtnL9Yz1vKW8rxDjT3XBQy1G/m3oABRHzOu
7nPntySGG7m1v0Ogs73d+M1ZoQIEvEdH472rx6VJKWq60eiWAXZx
-----END CERTIFICATE-----