Certificate:
    Data:
        Version: 3 (0x2)
        Serial Number:
            1f:16:97:1f:91:69:81:ec:6c:2d:8d:4d:80:33:e6:63
        Signature Algorithm: sha256WithRSAEncryption
        Issuer: C=US, ST=CA, O=Aerospike, Inc., OU=Engineering Test, CN=Chain Signing Cert
        Validity
            Not Before: May 28 18:02:49 2021 GMT
            Not After : May 27 18:02:49 2025 GMT
        Subject: C=US, ST=CA, O=Aerospike, Inc., OU=Test MultiServer, CN=aerospike-a-0.test-runner
        Subject Public Key Info:
            Public Key Algorithm: rsaEncryption
                RSA Public-Key: (2048 bit)
                Modulus:
                    00:ed:63:d2:33:d8:d2:33:46:a0:5f:30:e7:f3:70:
                    5e:43:23:ba:3d:70:bf:48:9f:3e:97:bd:38:25:10:
                    13:c1:4f:75:38:e1:c7:cc:cc:30:5f:f0:25:e1:b7:
                    68:99:3d:3d:4c:48:a6:c8:24:b0:b0:3d:3a:a8:5d:
                    d1:53:dd:87:a6:5d:5c:3d:50:57:91:bb:51:33:66:
                    16:a5:80:b1:3d:5c:f8:00:d6:b6:0c:85:ee:02:d5:
                    5e:fe:95:ca:13:4a:70:87:eb:3d:8c:3c:53:5c:4c:
                    5f:b2:b0:49:6e:30:29:8f:de:cf:32:6a:df:2c:bb:
                    7e:bf:c2:4a:1d:32:88:8c:8e:29:89:73:ce:56:52:
                    35:49:c1:68:7c:c4:74:11:1b:13:2b:65:66:06:c4:
                    53:58:a1:ca:7f:af:a3:93:62:0f:72:90:2f:65:2b:
                    d9:88:a3:10:c5:bb:1d:e9:3f:47:49:a7:ca:c7:76:
                    3c:9f:fa:67:cb:8e:99:e1:ea:a0:6f:e0:c3:39:ea:
                    3e:f0:a0:30:d6:00:0b:df:0f:c6:d9:f8:ff:92:1e:
                    20:6a:f1:39:b5:f6:a8:9c:4d:3b:33:67:a0:75:d2:
                    61:22:7e:56:47:ef:2f:db:fb:d3:ba:45:56:fb:e5:
                    71:32:ed:e5:da:e6:d4:03:0d:9f:6f:f8:08:4d:9c:
                    c5:91
                Exponent: 65537 (0x10001)
        X509v3 extensions:
            X509v3 Authority Key Identifier: 
                keyid:92:11:1F:FE:7D:75:F4:75:B9:85:41:2F:B3:1A:72:68:34:BD:00:D2

            X509v3 Subject Key Identifier: 
                D8:2C:A5:C8:65:42:49:AF:19:6E:21:00:F3:EC:26:94:DF:21:25:B5
            X509v3 Key Usage: critical
                Digital Signature, Key Encipherment
            X509v3 Extended Key Usage: 
                TLS Web Server Authentication, TLS Web Client Authentication
            X509v3 CRL Distribution Points: 

                Full Name:
                  URI:http://myhost.com/myca1.crl

                Full Name:
                  URI:http://myhost.com/myca2.crl

            X509v3 Certificate Policies: 
                Policy: 2.16.840.1.114412.1.1
                  CPS: https://myhost.com/CPS
                Policy: 2.23.140.1.2.2

            Authority Information Access: 
                OCSP - URI:http://ocsp.my.host/
                CA Issuers - URI:http://my.ca/ca.html

            X509v3 Basic Constraints: critical
                CA:FALSE
            X509v3 Subject Alternative Name: 
                DNS:aerospike-a-0.test-runner, DNS:aerospike-a-1.test-runner, DNS:aerospike-a-2.test-runner, DNS:aerospike-a-3.test-runner, DNS:aerospike-a-4.test-runner, DNS:aerospike-a-5.test-runner
    Signature Algorithm: sha256WithRSAEncryption
         2b:ed:1e:90:4d:0e:b3:91:3a:8e:e1:e2:d2:1d:56:7e:23:47:
         1e:7e:9e:fe:76:1e:bf:cd:59:ac:94:0f:53:61:37:d3:66:79:
         33:23:63:22:09:31:45:45:9e:97:34:c7:95:da:46:15:a1:5f:
         09:7a:6b:71:79:0b:6f:0c:3d:bf:92:b1:e4:0e:d1:f6:c9:07:
         c2:df:c9:39:72:40:f5:65:4c:47:17:74:46:7b:d4:0c:17:f6:
         a9:2e:0f:4e:fe:37:0e:7d:db:29:cd:c2:6c:fa:9a:f4:95:90:
         02:ae:30:d4:ec:ab:99:af:16:fd:03:08:6c:96:26:ef:c2:cc:
         3b:81:34:5c:1a:48:2f:b5:d2:1c:8b:1b:23:f6:41:be:9b:a9:
         10:98:bb:23:8a:5c:f0:9b:7c:d3:14:7f:c5:58:a8:b2:8c:8d:
         a4:61:fe:9d:20:ae:ae:8c:f7:9c:ba:61:4e:0e:cd:9b:1a:17:
         a2:00:f8:16:c0:f0:49:62:01:29:05:be:40:10:6d:b4:c5:b3:
         58:d4:e7:9f:d2:0e:9b:c6:7f:34:5b:8d:94:a3:50:f6:c2:86:
         df:6d:eb:82:8c:20:b9:83:53:57:c7:c9:76:bd:98:4e:bc:35:
         2d:69:34:43:18:71:63:51:d1:1d:ce:23:ec:31:8f:ea:b3:0f:
         fc:87:4a:7b
-----BEGIN CERTIFICATE-----
MIIFiTCCBHGgAwIBAgIQHxaXH5FpgexsLY1NgDPmYzANBgkqhkiG9w0BAQsFADBs
MQswCQYDVQQGEwJVUzELMAkGA1UECAwCQ0ExGDAWBgNVBAoMD0Flcm9zcGlrZSwg
SW5jLjEZMBcGA1UECwwQRW5naW5lZXJpbmcgVGVzdDEbMBkGA1UEAwwSQ2hhaW4g
U2lnbmluZyBDZXJ0MB4XDTIxMDUyODE4MDI0OVoXDTI1MDUyNzE4MDI0OVowczEL
MAkGA1UEBhMCVVMxCzAJBgNVBAgMAkNBMRgwFgYDVQQKDA9BZXJvc3Bpa2UsIElu
Yy4xGTAXBgNVBAsMEFRlc3QgTXVsdGlTZXJ2ZXIxIjAgBgNVBAMMGWFlcm9zcGlr
ZS1hLTAudGVzdC1ydW5uZXIwggEiMA0GCSqGSIb3DQEBAQUAA4IBDwAwggEKAoIB
AQDtY9Iz2NIzRqBfMOfzcF5DI7o9cL9Inz6XvTglEBPBT3U44cfMzDBf8CXht2iZ
PT1MSKbIJLCwPTqoXdFT3YemXVw9UFeRu1EzZhalgLE9XPgA1rYMhe4C1V7+lcoT
SnCH6z2MPFNcTF+ysEluMCmP3s8yat8su36/wkodMoiMjimJc85WUjVJwWh8xHQR
GxMrZWYGxFNYocp/r6OTYg9ykC9lK9mIoxDFux3pP0dJp8rHdjyf+mfLjpnh6qBv
4MM56j7woDDWAAvfD8bZ+P+SHiBq8Tm19qicTTszZ6B10mEiflZH7y/b+9O6RVb7
5XEy7eXa5tQDDZ9v+AhNnMWRAgMBAAGjggIeMIICGjAfBgNVHSMEGDAWgBSSER/+
fXX0dbmFQS+zGnJoNL0A0jAdBgNVHQ4EFgQU2CylyGVCSa8ZbiEA8+wmlN8hJbUw
DgYDVR0PAQH/BAQDAgWgMB0GA1UdJQQWMBQGCCsGAQUFBwMBBggrBgEFBQcDAjBP
BgNVHR8ESDBGMCGgH6AdhhtodHRwOi8vbXlob3N0LmNvbS9teWNhMS5jcmwwIaAf
oB2GG2h0dHA6Ly9teWhvc3QuY29tL215Y2EyLmNybDBGBgNVHSAEPzA9MDEGCWCG
SAGG/WwBATAkMCIGCCsGAQUFBwIBFhZodHRwczovL215aG9zdC5jb20vQ1BTMAgG
BmeBDAECAjBSBggrBgEFBQcBAQRGMEQwIAYIKwYBBQUHMAGGFGh0dHA6Ly9vY3Nw
Lm15Lmhvc3QvMCAGCCsGAQUFBzAChhRodHRwOi8vbXkuY2EvY2EuaHRtbDAMBgNV
HRMBAf8EAjAAMIGtBgNVHREEgaUwgaKCGWFlcm9zcGlrZS1hLTAudGVzdC1ydW5u
ZXKCGWFlcm9zcGlrZS1hLTEudGVzdC1ydW5uZXKCGWFlcm9zcGlrZS1hLTIudGVz
dC1ydW5uZXKCGWFlcm9zcGlrZS1hLTMudGVzdC1ydW5uZXKCGWFlcm9zcGlrZS1h
LTQudGVzdC1ydW5uZXKCGWFlcm9zcGlrZS1hLTUudGVzdC1ydW5uZXIwDQYJKoZI
hvcNAQELBQADggEBACvtHpBNDrOROo7h4tIdVn4jRx5+nv52Hr/NWayUD1NhN9Nm
eTMjYyIJMUVFnpc0x5XaRhWhXwl6a3F5C28MPb+SseQO0fbJB8LfyTlyQPVlTEcX
dEZ71AwX9qkuD07+Nw592ynNwmz6mvSVkAKuMNTsq5mvFv0DCGyWJu/CzDuBNFwa
SC+10hyLGyP2Qb6bqRCYuyOKXPCbfNMUf8VYqLKMjaRh/p0grq6M95y6YU4OzZsa
F6IA+BbA8EliASkFvkAQbbTFs1jU55/SDpvGfzRbjZSjUPbCht9t64KMILmDU1fH
yXa9mE68NS1pNEMYcWNR0R3OI+wxj+qzD/yHSns=
-----END CERTIFICATE-----