Certificate:
    Data:
        Version: 3 (0x2)
        Serial Number:
            67:05:14:5c:ca:42:e8:86:f9:0d:b5:84:f6:dd:38:0d
        Signature Algorithm: sha256WithRSAEncryption
        Issuer: C=US, ST=CA, O=Aerospike, Inc., OU=Engineering Test, CN=Chain Signing Cert
        Validity
            Not Before: Nov  5 12:18:47 2024 GMT
            Not After : Nov  4 12:18:47 2028 GMT
        Subject: C=US, ST=CA, O=Aerospike, Inc., OU=Test MultiServer, CN=aerospike-a-0.test-runner
        Subject Public Key Info:
            Public Key Algorithm: rsaEncryption
                Public-Key: (2048 bit)
                Modulus:
                    00:bc:e1:55:e1:38:34:03:36:2a:e4:03:55:14:86:
                    8f:5b:2f:a9:11:45:26:63:f9:5c:07:cf:82:3a:62:
                    fd:a4:6d:24:f7:81:3e:00:78:1a:2b:02:53:a0:79:
                    a2:73:4b:55:46:07:33:66:9d:89:cb:8c:5c:6d:14:
                    54:17:60:c7:4b:5b:d0:71:05:03:f9:c7:fd:22:3b:
                    72:5a:53:6c:7a:cb:9e:41:0f:eb:22:f3:56:18:00:
                    8e:a4:30:99:b1:a2:b2:87:24:ce:61:d7:57:98:0b:
                    f7:90:2a:6f:18:29:24:92:20:b4:33:ea:4d:91:15:
                    82:d5:d5:be:1d:46:75:df:74:67:3b:ca:31:0d:38:
                    7c:94:4c:f1:58:b0:07:7a:0a:f1:42:fe:18:b3:02:
                    26:1a:ac:6b:11:a7:f8:39:8d:a7:00:ac:3b:0e:31:
                    0d:be:f6:85:c1:53:ab:70:f6:a2:17:5b:09:94:c9:
                    a4:9a:92:2c:a9:d1:11:63:60:f0:12:23:de:2f:49:
                    f9:cf:9c:09:51:18:3a:ea:1b:e8:44:74:04:31:18:
                    95:b4:41:a6:ae:95:cc:eb:8b:17:92:4e:6f:be:9c:
                    25:0d:4f:d9:37:bb:4a:9b:aa:9a:f6:21:be:0c:84:
                    ae:a9:d4:28:0d:49:93:3e:48:76:d7:0c:f1:b1:a3:
                    93:ad
                Exponent: 65537 (0x10001)
        X509v3 extensions:
            X509v3 Subject Key Identifier: 
                FB:C6:13:72:C1:A0:7C:E3:D8:9D:EC:32:E0:42:9D:AE:01:49:21:99
            X509v3 Authority Key Identifier: 
                53:AF:1D:8E:05:2D:7C:F3:E7:B8:33:03:79:31:3E:95:0F:17:DB:45
            X509v3 Key Usage: critical
                Digital Signature, Key Encipherment
            X509v3 Extended Key Usage: 
                TLS Web Server Authentication, TLS Web Client Authentication
            X509v3 CRL Distribution Points: 
                Full Name:
                  URI:http://myhost.com/myca1.crl
                Full Name:
                  URI:http://myhost.com/myca2.crl
            X509v3 Certificate Policies: 
                Policy: 2.16.840.1.114412.1.1
                  CPS: https://myhost.com/CPS
                Policy: 2.23.140.1.2.2
            Authority Information Access: 
                OCSP - URI:http://ocsp.my.host/
                CA Issuers - URI:http://my.ca/ca.html
            X509v3 Basic Constraints: critical
                CA:FALSE
            X509v3 Subject Alternative Name: 
                DNS:aerospike-a-0.test-runner, DNS:aerospike-a-1.test-runner, DNS:aerospike-a-2.test-runner, DNS:aerospike-a-3.test-runner, DNS:aerospike-a-4.test-runner, DNS:aerospike-a-5.test-runner
    Signature Algorithm: sha256WithRSAEncryption
    Signature Value:
        1e:08:ad:60:4f:af:9c:5d:88:02:9e:ba:58:e5:9b:e7:1e:6b:
        e0:57:0e:5b:13:84:e2:95:c3:1d:03:0b:66:bf:0b:71:dc:c1:
        ef:a0:48:f6:c6:2b:b5:51:1a:d3:4c:a3:77:53:ed:2a:f7:8c:
        ad:16:a2:40:3d:e6:fe:c6:be:f1:b5:53:13:34:19:eb:76:c6:
        c7:1c:81:42:f6:7f:0d:52:16:85:52:b9:dd:40:e7:e2:b3:6b:
        2d:0b:00:b5:68:67:01:96:0b:6c:f7:97:0c:ea:dc:a1:f7:ce:
        1b:bf:bb:bb:77:68:e1:87:ef:bd:69:eb:d3:53:ba:f5:3d:6b:
        d5:64:40:a6:4d:e8:a8:53:3f:5d:9d:45:0f:b6:ef:0c:7f:80:
        0b:60:fa:3d:a2:65:c1:ae:97:6a:6c:05:ce:be:3a:ee:7e:f8:
        f9:ed:b7:7f:6d:74:61:50:17:3d:6c:28:31:06:ea:c0:f3:14:
        27:c8:ef:e7:3a:b7:13:b4:25:6f:b7:6d:ed:a0:67:f0:27:0d:
        d5:5b:69:c9:e5:11:32:6b:4e:39:a8:b0:21:92:f3:b2:43:79:
        8b:05:9a:46:7a:7e:c8:1e:e2:17:ed:73:90:33:3c:bd:6d:cd:
        6d:20:44:42:2e:79:e9:a4:87:d0:13:d9:6a:90:50:a1:71:b4:
        1e:96:37:dc
-----BEGIN CERTIFICATE-----
MIIFiTCCBHGgAwIBAgIQZwUUXMpC6Ib5DbWE9t04DTANBgkqhkiG9w0BAQsFADBs
MQswCQYDVQQGEwJVUzELMAkGA1UECAwCQ0ExGDAWBgNVBAoMD0Flcm9zcGlrZSwg
SW5jLjEZMBcGA1UECwwQRW5naW5lZXJpbmcgVGVzdDEbMBkGA1UEAwwSQ2hhaW4g
U2lnbmluZyBDZXJ0MB4XDTI0MTEwNTEyMTg0N1oXDTI4MTEwNDEyMTg0N1owczEL
MAkGA1UEBhMCVVMxCzAJBgNVBAgMAkNBMRgwFgYDVQQKDA9BZXJvc3Bpa2UsIElu
Yy4xGTAXBgNVBAsMEFRlc3QgTXVsdGlTZXJ2ZXIxIjAgBgNVBAMMGWFlcm9zcGlr
ZS1hLTAudGVzdC1ydW5uZXIwggEiMA0GCSqGSIb3DQEBAQUAA4IBDwAwggEKAoIB
AQC84VXhODQDNirkA1UUho9bL6kRRSZj+VwHz4I6Yv2kbST3gT4AeBorAlOgeaJz
S1VGBzNmnYnLjFxtFFQXYMdLW9BxBQP5x/0iO3JaU2x6y55BD+si81YYAI6kMJmx
orKHJM5h11eYC/eQKm8YKSSSILQz6k2RFYLV1b4dRnXfdGc7yjENOHyUTPFYsAd6
CvFC/hizAiYarGsRp/g5jacArDsOMQ2+9oXBU6tw9qIXWwmUyaSakiyp0RFjYPAS
I94vSfnPnAlRGDrqG+hEdAQxGJW0QaaulczrixeSTm++nCUNT9k3u0qbqpr2Ib4M
hK6p1CgNSZM+SHbXDPGxo5OtAgMBAAGjggIeMIICGjAdBgNVHQ4EFgQU+8YTcsGg
fOPYnewy4EKdrgFJIZkwHwYDVR0jBBgwFoAUU68djgUtfPPnuDMDeTE+lQ8X20Uw
DgYDVR0PAQH/BAQDAgWgMB0GA1UdJQQWMBQGCCsGAQUFBwMBBggrBgEFBQcDAjBP
BgNVHR8ESDBGMCGgH6AdhhtodHRwOi8vbXlob3N0LmNvbS9teWNhMS5jcmwwIaAf
oB2GG2h0dHA6Ly9teWhvc3QuY29tL215Y2EyLmNybDBGBgNVHSAEPzA9MDEGCWCG
SAGG/WwBATAkMCIGCCsGAQUFBwIBFhZodHRwczovL215aG9zdC5jb20vQ1BTMAgG
BmeBDAECAjBSBggrBgEFBQcBAQRGMEQwIAYIKwYBBQUHMAGGFGh0dHA6Ly9vY3Nw
Lm15Lmhvc3QvMCAGCCsGAQUFBzAChhRodHRwOi8vbXkuY2EvY2EuaHRtbDAMBgNV
HRMBAf8EAjAAMIGtBgNVHREEgaUwgaKCGWFlcm9zcGlrZS1hLTAudGVzdC1ydW5u
ZXKCGWFlcm9zcGlrZS1hLTEudGVzdC1ydW5uZXKCGWFlcm9zcGlrZS1hLTIudGVz
dC1ydW5uZXKCGWFlcm9zcGlrZS1hLTMudGVzdC1ydW5uZXKCGWFlcm9zcGlrZS1h
LTQudGVzdC1ydW5uZXKCGWFlcm9zcGlrZS1hLTUudGVzdC1ydW5uZXIwDQYJKoZI
hvcNAQELBQADggEBAB4IrWBPr5xdiAKeuljlm+cea+BXDlsThOKVwx0DC2a/C3Hc
we+gSPbGK7VRGtNMo3dT7Sr3jK0WokA95v7GvvG1UxM0Get2xsccgUL2fw1SFoVS
ud1A5+Kzay0LALVoZwGWC2z3lwzq3KH3zhu/u7t3aOGH771p69NTuvU9a9VkQKZN
6KhTP12dRQ+27wx/gAtg+j2iZcGul2psBc6+Ou5++Pntt39tdGFQFz1sKDEG6sDz
FCfI7+c6txO0JW+3be2gZ/AnDdVbacnlETJrTjmosCGS87JDeYsFmkZ6fsge4hft
c5AzPL1tzW0gREIueemkh9AT2WqQUKFxtB6WN9w=
-----END CERTIFICATE-----