Certificate:
    Data:
        Version: 3 (0x2)
        Serial Number:
            1a:b3:73:28:82:32:20:ca:f1:b2:72:57:4f:42:62:51:ad:d3:ec:df
        Signature Algorithm: sha256WithRSAEncryption
        Issuer: C=US, ST=CA, L=Mountain View, O=Aerospike, Inc., OU=Engineering Test, CN=Root CA
        Validity
            Not Before: Apr 22 08:57:01 2024 GMT
            Not After : Aug 24 08:57:01 3023 GMT
        Subject: C=US, ST=CA, O=Aerospike, OU=Engineering Test, CN=aerospike-a-0.test-runner
        Subject Public Key Info:
            Public Key Algorithm: rsaEncryption
                Public-Key: (2048 bit)
                Modulus:
                    00:a0:f1:9e:06:10:10:f9:75:00:bd:fc:94:05:1c:
                    16:41:bf:25:dc:2f:05:6a:51:28:83:ba:9b:f2:16:
                    c1:a7:58:b2:c7:5f:c8:50:43:5d:21:b8:a6:0c:6c:
                    8a:2c:40:57:86:e8:40:4e:2f:b3:08:7f:e8:69:6f:
                    35:c9:a5:ee:24:7a:65:79:62:9c:41:f2:aa:62:fd:
                    8d:ad:f1:da:fb:fe:96:83:30:e9:e4:c9:6e:34:04:
                    aa:eb:b0:dd:06:5a:ca:67:35:f2:02:ea:12:46:8f:
                    ca:56:cf:7a:3f:80:17:ca:c7:49:0f:cc:3c:dd:6f:
                    36:ff:66:94:6f:ec:f4:dd:5a:bb:c2:48:e3:8f:84:
                    d9:df:14:d5:29:06:72:a0:40:ee:f5:95:be:8a:cf:
                    b6:80:54:e2:15:59:25:c4:5e:ab:8f:b3:01:c1:84:
                    e8:71:55:69:85:ab:a2:6b:98:5b:7d:a9:9b:27:fb:
                    e9:47:87:80:06:06:c9:23:b4:54:12:2e:32:36:f6:
                    a7:f2:59:5b:64:41:21:9f:10:e6:db:af:dd:40:f9:
                    1e:49:d5:74:ff:58:88:e1:85:47:e7:b8:8f:d1:e6:
                    b8:da:09:ae:61:e7:89:65:07:d5:81:36:e4:71:e1:
                    70:8f:66:76:77:e6:3c:ef:d4:71:48:11:fa:bf:7b:
                    e0:bd
                Exponent: 65537 (0x10001)
        X509v3 extensions:
            X509v3 Subject Alternative Name:
                DNS:aerospike-a-0.test-runner, DNS:aerospike-a-1.test-runner, DNS:aerospike-a-2.test-runner, DNS:aerospike-a-3.test-runner, DNS:aerospike-a-4.test-runner, DNS:aerospike-a-5.test-runner
            X509v3 Subject Key Identifier:
                E7:A1:BF:11:DB:27:49:B9:59:75:B8:0A:C9:01:48:9C:85:31:F7:7E
            X509v3 Authority Key Identifier:
                CB:DD:69:7B:6D:3D:C7:6F:36:C0:EB:AF:4C:26:4D:3E:E0:97:53:61
    Signature Algorithm: sha256WithRSAEncryption
    Signature Value:
        4b:2c:dc:65:27:63:a5:20:f3:e5:d4:42:66:d1:87:2a:74:48:
        e1:63:89:1e:5a:43:41:e3:45:28:5d:fe:65:d4:9a:f7:20:0c:
        c6:51:86:12:e0:59:12:e0:f7:5a:fc:9e:04:ab:ee:b7:c6:f5:
        84:53:46:33:a4:2f:af:35:2a:08:33:31:eb:5c:d3:e5:2c:2b:
        c3:fd:27:49:98:67:60:e1:ba:79:d3:be:c9:df:6d:2f:a7:59:
        69:7b:6d:18:ec:7a:71:17:ab:9e:4a:dd:09:86:04:73:fe:35:
        11:64:70:1a:08:45:73:7d:d4:0d:d7:39:55:c9:86:e0:f2:79:
        1c:f6:6e:ac:af:fa:79:9d:02:f3:20:dd:2f:19:34:92:9c:b4:
        50:1d:cb:45:fb:6f:41:d0:52:10:28:c0:a6:45:06:b9:c4:50:
        d0:6b:83:3a:31:eb:07:b6:64:5b:a6:01:8b:b2:2f:33:84:1e:
        9d:a5:a2:eb:e6:fa:85:51:67:a3:e1:fb:89:9f:22:15:41:c0:
        d7:54:c2:36:b2:49:f8:fb:94:c7:44:04:5d:0f:70:b8:8e:f5:
        31:da:27:d8:8f:21:22:87:a7:df:32:2b:61:46:c2:de:e6:5d:
        96:f0:40:f5:b9:9e:ef:da:f4:90:94:7e:55:16:d7:9e:37:a4:
        13:56:61:5d

-----BEGIN CERTIFICATE-----
MIIEajCCA1KgAwIBAgIUGrNzKIIyIMrxsnJXT0JiUa3T7N8wDQYJKoZIhvcNAQEL
BQAweTELMAkGA1UEBhMCVVMxCzAJBgNVBAgMAkNBMRYwFAYDVQQHDA1Nb3VudGFp
biBWaWV3MRgwFgYDVQQKDA9BZXJvc3Bpa2UsIEluYy4xGTAXBgNVBAsMEEVuZ2lu
ZWVyaW5nIFRlc3QxEDAOBgNVBAMMB1Jvb3QgQ0EwIBcNMjQwNDIyMDg1NzAxWhgP
MzAyMzA4MjQwODU3MDFaMG0xCzAJBgNVBAYTAlVTMQswCQYDVQQIDAJDQTESMBAG
A1UECgwJQWVyb3NwaWtlMRkwFwYDVQQLDBBFbmdpbmVlcmluZyBUZXN0MSIwIAYD
VQQDDBlhZXJvc3Bpa2UtYS0wLnRlc3QtcnVubmVyMIIBIjANBgkqhkiG9w0BAQEF
AAOCAQ8AMIIBCgKCAQEAoPGeBhAQ+XUAvfyUBRwWQb8l3C8FalEog7qb8hbBp1iy
x1/IUENdIbimDGyKLEBXhuhATi+zCH/oaW81yaXuJHpleWKcQfKqYv2NrfHa+/6W
gzDp5MluNASq67DdBlrKZzXyAuoSRo/KVs96P4AXysdJD8w83W82/2aUb+z03Vq7
wkjjj4TZ3xTVKQZyoEDu9ZW+is+2gFTiFVklxF6rj7MBwYTocVVphauia5hbfamb
J/vpR4eABgbJI7RUEi4yNvan8llbZEEhnxDm26/dQPkeSdV0/1iI4YVH57iP0ea4
2gmuYeeJZQfVgTbkceFwj2Z2d+Y879RxSBH6v3vgvQIDAQABo4HzMIHwMIGtBgNV
HREEgaUwgaKCGWFlcm9zcGlrZS1hLTAudGVzdC1ydW5uZXKCGWFlcm9zcGlrZS1h
LTEudGVzdC1ydW5uZXKCGWFlcm9zcGlrZS1hLTIudGVzdC1ydW5uZXKCGWFlcm9z
cGlrZS1hLTMudGVzdC1ydW5uZXKCGWFlcm9zcGlrZS1hLTQudGVzdC1ydW5uZXKC
GWFlcm9zcGlrZS1hLTUudGVzdC1ydW5uZXIwHQYDVR0OBBYEFOehvxHbJ0m5WXW4
CskBSJyFMfd+MB8GA1UdIwQYMBaAFMvdaXttPcdvNsDrr0wmTT7gl1NhMA0GCSqG
SIb3DQEBCwUAA4IBAQBLLNxlJ2OlIPPl1EJm0YcqdEjhY4keWkNB40UoXf5l1Jr3
IAzGUYYS4FkS4Pda/J4Eq+63xvWEU0YzpC+vNSoIMzHrXNPlLCvD/SdJmGdg4bp5
077J320vp1lpe20Y7HpxF6ueSt0JhgRz/jURZHAaCEVzfdQN1zlVyYbg8nkc9m6s
r/p5nQLzIN0vGTSSnLRQHctF+29B0FIQKMCmRQa5xFDQa4M6MesHtmRbpgGLsi8z
hB6dpaLr5vqFUWej4fuJnyIVQcDXVMI2skn4+5THRARdD3C4jvUx2ifYjyEih6ff
MithRsLe5l2W8ED1uZ7v2vSQlH5VFteeN6QTVmFd
-----END CERTIFICATE-----