Certificate:
    Data:
        Version: 3 (0x2)
        Serial Number:
            bc:b2:59:97:0d:d4:37:b7
    Signature Algorithm: sha256WithRSAEncryption
        Issuer: C=US, ST=CA, L=Mountain View, O=Aerospike, Inc., OU=Engineering Test, CN=Root CA
        IssuerFile: ca-cert2.pem
        Validity
            Not Before: Apr 21 07:40:04 2023 GMT
            Not After : Apr 20 07:40:04 2024 GMT
        Subject: C=US, ST=CA, L=Mountain View, O=Aerospike, Inc., OU=Cluster Name Test, CN=aerospike-a-0.test-runner
        Subject Public Key Info:
            Public Key Algorithm: rsaEncryption
                RSA Public-Key: (2048 bit)
                Modulus:
                    00:ea:38:e7:cc:6d:27:61:a8:a4:42:f2:d1:88:f5:
                    a9:4f:bb:27:25:5b:c9:fd:6c:68:09:72:e0:b8:b5:
                    1f:76:ac:3b:49:8d:29:9f:fb:da:15:9f:b3:a8:14:
                    71:6a:dd:e5:ec:7f:e4:7e:ee:38:7b:81:d7:4d:e2:
                    4a:e7:40:e7:f9:d5:f7:e2:f6:18:c1:47:06:96:84:
                    6a:da:89:d8:28:ee:ba:9a:4d:79:fc:3b:41:a6:c7:
                    fe:57:dd:4f:d6:33:4e:54:c2:8c:b6:53:69:11:a5:
                    f2:16:45:3e:4f:15:5c:93:f2:88:ed:6c:5d:cd:87:
                    98:ca:d7:ae:87:b3:45:7a:45:ca:3a:9a:b3:6b:86:
                    53:4d:03:07:51:6f:bc:45:18:36:4b:79:66:78:79:
                    4a:68:39:fc:25:5f:88:b2:c8:fa:f5:cb:5b:a5:d0:
                    8a:6e:92:c4:6a:3c:13:63:91:65:d8:d5:f3:dc:85:
                    e0:7c:da:d7:cb:97:2b:35:15:f0:2e:d8:84:df:b9:
                    c7:8f:a4:1a:7c:d5:20:3e:fc:6d:fe:e8:c0:2a:1f:
                    52:da:d4:85:5d:d2:22:04:ff:fd:10:37:23:a7:ce:
                    32:10:89:68:80:6b:2f:c5:23:76:d0:61:5a:0d:4b:
                    c2:00:a9:a4:db:b5:4e:30:d2:f4:2c:0a:9e:98:12:
                    4f:67
                Exponent: 65537 (0x10001)
        X509v3 extensions:
            X509v3 Subject Alternative Name:
                DNS:aerospike-a-0.test-runner, DNS:aerospike-a-1.test-runner, DNS:aerospike-a-2.test-runner, DNS:aerospike-a-3.test-runner, DNS:aerospike-a-4.test-runner, DNS:aerospike-a-5.test-runner
    Signature Algorithm: sha256WithRSAEncryption
         08:63:53:34:d1:8e:e9:96:5d:45:fb:13:61:63:83:25:ef:9d:
         45:fd:30:0f:12:ab:d5:ac:6e:cd:76:73:c6:96:02:b5:1d:33:
         e9:ee:32:84:8b:39:0d:ab:a4:03:7f:f2:c5:0a:24:3e:59:75:
         37:28:ef:d4:6c:4c:2a:c0:45:bf:02:4a:5d:e5:7d:44:bb:f8:
         63:3a:28:f6:ff:f6:8d:ed:c4:50:e8:48:cd:86:67:ab:1d:43:
         86:f9:f7:cb:e5:db:85:9e:ed:c1:fe:97:ef:04:54:2d:ff:ab:
         fd:ad:e9:85:2e:c2:ce:b2:0c:af:bb:4a:80:3a:5c:f8:c9:04:
         5f:10:2e:18:3b:7a:35:42:86:da:d7:a5:74:dd:2d:58:81:96:
         a7:ab:01:98:c4:36:eb:d3:62:70:2d:5b:24:f7:db:c0:43:42:
         46:37:a1:57:25:7c:d5:43:a3:f9:75:35:46:f2:00:3b:8b:e1:
         59:af:58:cf:84:1d:97:0f:72:9b:b6:c4:82:8e:15:37:d1:25:
         34:7a:2e:ae:23:03:27:e9:8a:43:c8:0e:34:15:f1:15:62:e2:
         f1:8b:e1:1b:f2:1a:50:d0:97:cb:bf:96:61:d9:f0:ca:75:b5:
         09:49:22:c6:d2:59:c9:c2:23:36:f3:c4:ab:8d:4a:fd:df:08:
         2e:1f:7d:90
-----BEGIN CERTIFICATE-----
MIIEMTCCAxmgAwIBAgIJALyyWZcN1De3MA0GCSqGSIb3DQEBCwUAMHkxCzAJBgNV
BAYTAlVTMQswCQYDVQQIDAJDQTEWMBQGA1UEBwwNTW91bnRhaW4gVmlldzEYMBYG
A1UECgwPQWVyb3NwaWtlLCBJbmMuMRkwFwYDVQQLDBBFbmdpbmVlcmluZyBUZXN0
MRAwDgYDVQQDDAdSb290IENBMB4XDTIzMDQyMTA3NDAwNFoXDTI0MDQyMDA3NDAw
NFowgYAxCzAJBgNVBAYTAlVTMQswCQYDVQQIDAJDQTEWMBQGA1UEBwwNTW91bnRh
aW4gVmlldzEYMBYGA1UECgwPQWVyb3NwaWtlLCBJbmMuMRowGAYDVQQLDBFDbHVz
dGVyIE5hbWUgVGVzdDEWMBQGA1UEAwwNYm9iLWNsdXN0ZXItYTCCASIwDQYJKoZI
hvcNAQEBBQADggEPADCCAQoCggEBAOo458xtJ2GopELy0Yj1qU+7JyVbyf1saAly
4Li1H3asO0mNKZ/72hWfs6gUcWrd5ex/5H7uOHuB103iSudA5/nV9+L2GMFHBpaE
atqJ2CjuuppNefw7QabH/lfdT9YzTlTCjLZTaRGl8hZFPk8VXJPyiO1sXc2HmMrX
roezRXpFyjqas2uGU00DB1FvvEUYNkt5Znh5Smg5/CVfiLLI+vXLW6XQim6SxGo8
E2ORZdjV89yF4Hza18uXKzUV8C7YhN+5x4+kGnzVID78bf7owCofUtrUhV3SIgT/
/RA3I6fOMhCJaIBrL8UjdtBhWg1LwgCppNu1TjDS9CwKnpgST2cCAwEAAaOBszCB
sDCBrQYDVR0RBIGlMIGighlhZXJvc3Bpa2UtYS0wLnRlc3QtcnVubmVyghlhZXJv
c3Bpa2UtYS0xLnRlc3QtcnVubmVyghlhZXJvc3Bpa2UtYS0yLnRlc3QtcnVubmVy
ghlhZXJvc3Bpa2UtYS0zLnRlc3QtcnVubmVyghlhZXJvc3Bpa2UtYS00LnRlc3Qt
cnVubmVyghlhZXJvc3Bpa2UtYS01LnRlc3QtcnVubmVyMA0GCSqGSIb3DQEBCwUA
A4IBAQAIY1M00Y7pll1F+xNhY4Ml751F/TAPEqvVrG7NdnPGlgK1HTPp7jKEizkN
q6QDf/LFCiQ+WXU3KO/UbEwqwEW/Akpd5X1Eu/hjOij2//aN7cRQ6EjNhmerHUOG
+ffL5duFnu3B/pfvBFQt/6v9remFLsLOsgyvu0qAOlz4yQRfEC4YO3o1Qoba16V0
3S1YgZanqwGYxDbr02JwLVsk99vAQ0JGN6FXJXzVQ6P5dTVG8gA7i+FZr1jPhB2X
D3KbtsSCjhU30SU0ei6uIwMn6YpDyA40FfEVYuLxi+Eb8hpQ0JfLv5Zh2fDKdbUJ
SSLG0lnJwiM288SrjUr93wguH32Q
-----END CERTIFICATE-----