Certificate:
    Data:
        Version: 3 (0x2)
        Serial Number:
            b2:b2:a5:3f:48:98:57:17
    Signature Algorithm: sha256WithRSAEncryption
        Issuer: C=US, ST=CA, L=Mountain View, O="Aerospike, Inc.", OU=Engineering Test, CN=Root CA
        Validity
            Not Before: Apr 18 14:26:35 2023 GMT
            Not After : Jun 17 14:26:35 2023 GMT
        Subject: C=US, ST=CA, O=Aerospike, Inc., OU=Test MultiServer, CN=aerospike-a-0.test-runner
        Subject Public Key Info:
            Public Key Algorithm: rsaEncryption
                RSA Public-Key: (4096 bit)
                Modulus:
                    00:f0:f2:ed:fb:d1:d8:dc:06:67:69:dc:b9:1c:3f:
                    c0:90:c1:95:89:7a:03:24:0b:b1:9d:dc:27:d7:6c:
                    9a:e8:e1:0c:65:0d:2e:bb:31:33:c4:d1:0a:52:88:
                    3d:6b:fe:3f:9f:22:c6:73:f2:9b:5d:b1:37:e8:0f:
                    d8:c6:3e:8c:e9:af:11:04:b0:ff:7a:8a:c6:e2:2d:
                    85:e3:75:f2:87:1f:6e:18:6c:95:a3:f7:3b:c0:6b:
                    1a:99:3f:93:37:1c:01:b0:7f:85:37:44:a1:6e:d0:
                    02:71:bc:88:2a:5e:d5:b1:51:da:e8:ef:9e:d4:a6:
                    ba:56:e0:c7:40:a7:b5:01:19:a4:ff:74:a6:6a:ca:
                    41:d1:c2:9c:06:f7:35:d7:1a:68:fa:42:fe:53:61:
                    c3:78:d5:1c:eb:8c:e4:bf:93:93:61:59:7d:1a:7a:
                    65:83:01:df:73:80:47:f6:47:7a:87:cf:d1:a2:66:
                    07:12:38:9f:38:dc:7a:ef:d5:11:d5:2d:c0:9e:5e:
                    f0:98:45:23:fb:7c:0a:86:74:0a:b9:f3:96:7b:04:
                    9e:80:92:1b:58:07:6e:ee:f8:2d:39:1c:e9:24:50:
                    ea:e8:9e:ae:fc:49:9f:7e:e6:b5:f0:5b:da:69:98:
                    76:4f:c3:29:8a:38:b4:e8:6b:07:e1:f9:a2:ba:c2:
                    6b:6b:37:ce:6f:23:4a:5a:22:c8:97:61:16:89:fe:
                    98:e3:ab:83:ca:c8:e6:70:e2:e0:25:91:b3:ea:8d:
                    54:97:43:8c:ab:51:db:34:7a:c2:2e:77:9e:0e:45:
                    be:dc:46:69:eb:bc:da:0e:65:41:0b:fb:e7:df:3f:
                    68:6e:55:0c:be:88:ed:81:25:94:8d:0c:09:6a:8d:
                    d7:c2:66:0d:7a:0f:3e:dc:9e:52:86:db:a5:44:14:
                    92:2e:67:1d:e8:2c:fb:2f:45:08:63:3a:4f:53:81:
                    14:01:26:34:e6:1f:a7:16:85:c3:b8:ce:27:30:90:
                    fa:eb:13:11:e3:14:02:f4:0f:80:3b:fa:b1:1d:70:
                    85:3c:45:e6:a2:45:99:cc:e9:b1:6e:8f:32:dc:a2:
                    ac:95:72:34:f7:0e:07:54:11:a0:71:6f:ab:ab:2f:
                    82:5f:b3:c1:05:a7:83:46:42:a8:ab:0c:b0:23:7b:
                    9e:53:25:41:57:1e:79:b7:28:e1:7c:c3:69:b2:ad:
                    06:6f:6e:6d:20:a4:c0:04:79:c2:f8:56:f6:43:63:
                    52:2a:85:13:14:6d:6a:73:d9:e1:3d:19:75:99:c8:
                    8d:b9:61:b5:19:26:ac:72:61:2a:5c:11:d6:ad:8a:
                    b4:d0:7e:28:4e:64:ae:e8:b0:90:63:db:f3:10:92:
                    8d:6f:93
                Exponent: 65537 (0x10001)
        X509v3 extensions:
            X509v3 Subject Alternative Name:
                DNS:aerospike-a-0.test-runner, DNS:aerospike-a-1.test-runner, DNS:aerospike-a-2.test-runner, DNS:aerospike-a-3.test-runner, DNS:aerospike-a-4.test-runner, DNS:aerospike-a-5.test-runner
    Signature Algorithm: sha256WithRSAEncryption
         09:56:7f:53:a1:b0:cf:f5:ea:2c:9f:05:e4:4c:a4:35:81:bc:
         3c:3e:39:4c:46:28:c5:34:95:97:41:de:a6:7f:53:bd:77:7b:
         a6:c0:0c:92:0a:80:4b:08:0f:8b:d8:b6:81:fa:cb:fd:0c:7c:
         cf:ac:88:55:b3:c9:bb:4e:ad:9c:77:59:d4:3c:52:64:bc:4e:
         81:b9:1f:2d:5d:ad:c2:bd:58:b3:2e:dc:c2:f5:23:cc:0f:df:
         39:2e:e2:a6:06:a7:38:0d:ab:0f:3c:97:2c:0b:27:35:1e:10:
         ea:62:76:62:2f:8f:ce:fb:98:13:06:53:b6:f4:1d:24:0c:56:
         c3:44:e3:8a:33:2b:33:11:a3:c1:4a:16:49:d2:f4:dd:90:bd:
         59:44:a1:d1:a6:32:c6:24:05:73:f9:33:ab:6c:17:44:e5:d5:
         40:2e:85:5e:2a:6b:90:8d:78:44:7d:d0:bb:17:6e:7d:1f:a3:
         cb:e5:92:c0:e8:93:7d:80:8e:74:17:ad:3a:da:4b:f2:4e:31:
         41:e6:25:8a:b0:61:9a:4f:9e:4a:d3:0b:36:49:aa:4b:64:f1:
         6a:6e:84:f8:93:51:f1:1b:95:71:26:f8:3e:4b:fa:06:44:ea:
         ef:48:f3:fd:d9:4e:0e:17:88:03:db:7d:f9:6d:55:60:00:ef:
         c4:5b:00:3c:db:b8:d2:17:75:b9:8d:ab:7a:f8:02:f3:85:a9:
         a7:ee:88:02:58:e4:fd:ec:c5:dd:bd:77:02:e4:22:92:bf:48:
         d2:0d:6f:a3:9b:d5:c8:07:2c:51:3a:f4:06:6c:4f:11:d7:28:
         8d:18:5f:8e:04:30:40:3e:9f:98:d6:95:81:e6:c9:71:a7:33:
         3f:52:76:2a:fa:ab:88:7e:94:be:2b:a2:26:d8:fe:7e:56:42:
         5c:0d:b3:36:e9:c3:4d:82:bd:b0:51:9d:a3:66:db:1c:46:00:
         5f:8a:a9:6c:f2:27:9d:89:dd:7a:97:9e:d9:3e:2b:03:2c:df:
         46:55:c4:af:3f:4c:52:99:96:29:c4:b1:c6:5f:a2:d6:bc:f8:
         5a:4e:76:c6:b6:1a:ff:96:77:1c:05:be:2c:a0:5c:93:7d:6b:
         c1:e0:63:46:06:67:d6:17:6a:a7:54:66:a5:cb:62:a8:d3:b1:
         3c:6c:fd:6d:5d:52:a6:92:18:65:92:ef:44:33:e0:3f:8a:db:
         9e:5d:d6:ef:64:06:ca:5f:03:7b:aa:4b:eb:d6:6e:a8:94:f7:
         74:50:45:09:ad:cb:fe:b4:c1:e1:9a:14:66:01:64:44:a6:da:
         49:f2:54:f4:e1:fb:10:50:33:5e:2b:a5:76:b3:7d:2c:7a:c7:
         87:da:74:b7:a6:8e:6a:bb
-----BEGIN CERTIFICATE-----
MIIGJTCCBA2gAwIBAgIJALKypT9ImFcXMA0GCSqGSIb3DQEBCwUAMHsxCzAJBgNV
BAYTAlVTMQswCQYDVQQIDAJDQTEWMBQGA1UEBwwNTW91bnRhaW4gVmlldzEaMBgG
A1UECgwRIkFlcm9zcGlrZSwgSW5jLiIxGTAXBgNVBAsMEEVuZ2luZWVyaW5nIFRl
c3QxEDAOBgNVBAMMB1Jvb3QgQ0EwHhcNMjMwNDE4MTQyNjM1WhcNMjMwNjE3MTQy
NjM1WjBzMQswCQYDVQQGEwJVUzELMAkGA1UECAwCQ0ExGDAWBgNVBAoMD0Flcm9z
cGlrZSwgSW5jLjEZMBcGA1UECwwQVGVzdCBNdWx0aVNlcnZlcjEiMCAGA1UEAwwZ
YWVyb3NwaWtlLWEtMC50ZXN0LXJ1bm5lcjCCAiIwDQYJKoZIhvcNAQEBBQADggIP
ADCCAgoCggIBAPDy7fvR2NwGZ2ncuRw/wJDBlYl6AyQLsZ3cJ9dsmujhDGUNLrsx
M8TRClKIPWv+P58ixnPym12xN+gP2MY+jOmvEQSw/3qKxuItheN18ocfbhhslaP3
O8BrGpk/kzccAbB/hTdEoW7QAnG8iCpe1bFR2ujvntSmulbgx0CntQEZpP90pmrK
QdHCnAb3NdcaaPpC/lNhw3jVHOuM5L+Tk2FZfRp6ZYMB33OAR/ZHeofP0aJmBxI4
nzjceu/VEdUtwJ5e8JhFI/t8CoZ0CrnzlnsEnoCSG1gHbu74LTkc6SRQ6uiervxJ
n37mtfBb2mmYdk/DKYo4tOhrB+H5orrCa2s3zm8jSloiyJdhFon+mOOrg8rI5nDi
4CWRs+qNVJdDjKtR2zR6wi53ng5FvtxGaeu82g5lQQv7598/aG5VDL6I7YEllI0M
CWqN18JmDXoPPtyeUobbpUQUki5nHegs+y9FCGM6T1OBFAEmNOYfpxaFw7jOJzCQ
+usTEeMUAvQPgDv6sR1whTxF5qJFmczpsW6PMtyirJVyNPcOB1QRoHFvq6svgl+z
wQWng0ZCqKsMsCN7nlMlQVceebco4XzDabKtBm9ubSCkwAR5wvhW9kNjUiqFExRt
anPZ4T0ZdZnIjblhtRkmrHJhKlwR1q2KtNB+KE5kruiwkGPb8xCSjW+TAgMBAAGj
gbMwgbAwga0GA1UdEQSBpTCBooIZYWVyb3NwaWtlLWEtMC50ZXN0LXJ1bm5lcoIZ
YWVyb3NwaWtlLWEtMS50ZXN0LXJ1bm5lcoIZYWVyb3NwaWtlLWEtMi50ZXN0LXJ1
bm5lcoIZYWVyb3NwaWtlLWEtMy50ZXN0LXJ1bm5lcoIZYWVyb3NwaWtlLWEtNC50
ZXN0LXJ1bm5lcoIZYWVyb3NwaWtlLWEtNS50ZXN0LXJ1bm5lcjANBgkqhkiG9w0B
AQsFAAOCAgEACVZ/U6Gwz/XqLJ8F5EykNYG8PD45TEYoxTSVl0Hepn9TvXd7psAM
kgqASwgPi9i2gfrL/Qx8z6yIVbPJu06tnHdZ1DxSZLxOgbkfLV2twr1Ysy7cwvUj
zA/fOS7ipganOA2rDzyXLAsnNR4Q6mJ2Yi+PzvuYEwZTtvQdJAxWw0TjijMrMxGj
wUoWSdL03ZC9WUSh0aYyxiQFc/kzq2wXROXVQC6FXiprkI14RH3QuxdufR+jy+WS
wOiTfYCOdBetOtpL8k4xQeYlirBhmk+eStMLNkmqS2Txam6E+JNR8RuVcSb4Pkv6
BkTq70jz/dlODheIA9t9+W1VYADvxFsAPNu40hd1uY2revgC84Wpp+6IAljk/ezF
3b13AuQikr9I0g1vo5vVyAcsUTr0BmxPEdcojRhfjgQwQD6fmNaVgebJcaczP1J2
KvqriH6UviuiJtj+flZCXA2zNunDTYK9sFGdo2bbHEYAX4qpbPInnYndepee2T4r
AyzfRlXErz9MUpmWKcSxxl+i1rz4Wk52xrYa/5Z3HAW+LKBck31rweBjRgZn1hdq
p1RmpctiqNOxPGz9bV1SppIYZZLvRDPgP4rbnl3W72QGyl8De6pL69ZuqJT3dFBF
Ca3L/rTB4ZoUZgFkRKbaSfJU9OH7EFAzXiuldrN9LHrHh9p0t6aOars=
-----END CERTIFICATE-----
