Certificate:
    Data:
        Version: 3 (0x2)
        Serial Number:
            1f:16:97:1f:91:69:81:ec:6c:2d:8d:4d:80:33:e6:63
        Signature Algorithm: sha256WithRSAEncryption
        Issuer: C=US, ST=CA, O=Aerospike, Inc., OU=Engineering Test, CN=Chain Signing Cert
        Validity
            Not Before: May 28 18:02:49 2021 GMT
            Not After : May 27 18:02:49 2025 GMT
        Subject: C=US, ST=CA, O=Aerospike, Inc., OU=Test MultiServer, CN=aerospike-a-0.test-runner
        Subject Public Key Info:
            Public Key Algorithm: rsaEncryption
                RSA Public-Key: (2048 bit)
                Modulus:
                    00:ed:63:d2:33:d8:d2:33:46:a0:5f:30:e7:f3:70:
                    5e:43:23:ba:3d:70:bf:48:9f:3e:97:bd:38:25:10:
                    13:c1:4f:75:38:e1:c7:cc:cc:30:5f:f0:25:e1:b7:
                    68:99:3d:3d:4c:48:a6:c8:24:b0:b0:3d:3a:a8:5d:
                    d1:53:dd:87:a6:5d:5c:3d:50:57:91:bb:51:33:66:
                    16:a5:80:b1:3d:5c:f8:00:d6:b6:0c:85:ee:02:d5:
                    5e:fe:95:ca:13:4a:70:87:eb:3d:8c:3c:53:5c:4c:
                    5f:b2:b0:49:6e:30:29:8f:de:cf:32:6a:df:2c:bb:
                    7e:bf:c2:4a:1d:32:88:8c:8e:29:89:73:ce:56:52:
                    35:49:c1:68:7c:c4:74:11:1b:13:2b:65:66:06:c4:
                    53:58:a1:ca:7f:af:a3:93:62:0f:72:90:2f:65:2b:
                    d9:88:a3:10:c5:bb:1d:e9:3f:47:49:a7:ca:c7:76:
                    3c:9f:fa:67:cb:8e:99:e1:ea:a0:6f:e0:c3:39:ea:
                    3e:f0:a0:30:d6:00:0b:df:0f:c6:d9:f8:ff:92:1e:
                    20:6a:f1:39:b5:f6:a8:9c:4d:3b:33:67:a0:75:d2:
                    61:22:7e:56:47:ef:2f:db:fb:d3:ba:45:56:fb:e5:
                    71:32:ed:e5:da:e6:d4:03:0d:9f:6f:f8:08:4d:9c:
                    c5:91
                Exponent: 65537 (0x10001)
        X509v3 extensions:
            X509v3 Authority Key Identifier: 
                keyid:92:11:1F:FE:7D:75:F4:75:B9:85:41:2F:B3:1A:72:68:34:BD:00:D2

            X509v3 Subject Key Identifier: 
                D8:2C:A5:C8:65:42:49:AF:19:6E:21:00:F3:EC:26:94:DF:21:25:B5
            X509v3 Key Usage: critical
                Digital Signature, Key Encipherment
            X509v3 Extended Key Usage: 
                TLS Web Server Authentication, TLS Web Client Authentication
            X509v3 CRL Distribution Points: 

                Full Name:
                  URI:http://myhost.com/myca1.crl

                Full Name:
                  URI:http://myhost.com/myca2.crl

            X509v3 Certificate Policies: 
                Policy: 2.16.840.1.114412.1.1
                  CPS: https://myhost.com/CPS
                Policy: 2.23.140.1.2.2

            Authority Information Access: 
                OCSP - URI:http://ocsp.my.host/
                CA Issuers - URI:http://my.ca/ca.html

            X509v3 Basic Constraints: critical
                CA:FALSE
            X509v3 Subject Alternative Name: 
                DNS:aerospike-a-0.test-runner, DNS:aerospike-a-1.test-runner, DNS:aerospike-a-2.test-runner, DNS:aerospike-a-3.test-runner, DNS:aerospike-a-4.test-runner, DNS:aerospike-a-5.test-runner
    Signature Algorithm: sha256WithRSAEncryption
         2b:ed:1e:90:4d:0e:b3:91:3a:8e:e1:e2:d2:1d:56:7e:23:47:
         1e:7e:9e:fe:76:1e:bf:cd:59:ac:94:0f:53:61:37:d3:66:79:
         33:23:63:22:09:31:45:45:9e:97:34:c7:95:da:46:15:a1:5f:
         09:7a:6b:71:79:0b:6f:0c:3d:bf:92:b1:e4:0e:d1:f6:c9:07:
         c2:df:c9:39:72:40:f5:65:4c:47:17:74:46:7b:d4:0c:17:f6:
         a9:2e:0f:4e:fe:37:0e:7d:db:29:cd:c2:6c:fa:9a:f4:95:90:
         02:ae:30:d4:ec:ab:99:af:16:fd:03:08:6c:96:26:ef:c2:cc:
         3b:81:34:5c:1a:48:2f:b5:d2:1c:8b:1b:23:f6:41:be:9b:a9:
         10:98:bb:23:8a:5c:f0:9b:7c:d3:14:7f:c5:58:a8:b2:8c:8d:
         a4:61:fe:9d:20:ae:ae:8c:f7:9c:ba:61:4e:0e:cd:9b:1a:17:
         a2:00:f8:16:c0:f0:49:62:01:29:05:be:40:10:6d:b4:c5:b3:
         58:d4:e7:9f:d2:0e:9b:c6:7f:34:5b:8d:94:a3:50:f6:c2:86:
         df:6d:eb:82:8c:20:b9:83:53:57:c7:c9:76:bd:98:4e:bc:35:
         2d:69:34:43:18:71:63:51:d1:1d:ce:23:ec:31:8f:ea:b3:0f:
         fc:87:4a:7b
-----BEGIN CERTIFICATE-----
MIIFiTCCBHGgAwIBAgIQHxaXH5FpgexsLY1NgDPmYzANBgkqhkiG9w0BAQsFADBs
MQswCQYDVQQGEwJVUzELMAkGA1UECAwCQ0ExGDAWBgNVBAoMD0Flcm9zcGlrZSwg
SW5jLjEZMBcGA1UECwwQRW5naW5lZXJpbmcgVGVzdDEbMBkGA1UEAwwSQ2hhaW4g
U2lnbmluZyBDZXJ0MB4XDTIxMDUyODE4MDI0OVoXDTI1MDUyNzE4MDI0OVowczEL
MAkGA1UEBhMCVVMxCzAJBgNVBAgMAkNBMRgwFgYDVQQKDA9BZXJvc3Bpa2UsIElu
Yy4xGTAXBgNVBAsMEFRlc3QgTXVsdGlTZXJ2ZXIxIjAgBgNVBAMMGWFlcm9zcGlr
ZS1hLTAudGVzdC1ydW5uZXIwggEiMA0GCSqGSIb3DQEBAQUAA4IBDwAwggEKAoIB
AQDtY9Iz2NIzRqBfMOfzcF5DI7o9cL9Inz6XvTglEBPBT3U44cfMzDBf8CXht2iZ
PT1MSKbIJLCwPTqoXdFT3YemXVw9UFeRu1EzZhalgLE9XPgA1rYMhe4C1V7+lcoT
SnCH6z2MPFNcTF+ysEluMCmP3s8yat8su36/wkodMoiMjimJc85WUjVJwWh8xHQR
GxMrZWYGxFNYocp/r6OTYg9ykC9lK9mIoxDFux3pP0dJp8rHdjyf+mfLjpnh6qBv
4MM56j7woDDWAAvfD8bZ+P+SHiBq8Tm19qicTTszZ6B10mEiflZH7y/b+9O6RVb7
5XEy7eXa5tQDDZ9v+AhNnMWRAgMBAAGjggIeMIICGjAfBgNVHSMEGDAWgBSSER/+
fXX0dbmFQS+zGnJoNL0A0jAdBgNVHQ4EFgQU2CylyGVCSa8ZbiEA8+wmlN8hJbUw
DgYDVR0PAQH/BAQDAgWgMB0GA1UdJQQWMBQGCCsGAQUFBwMBBggrBgEFBQcDAjBP
BgNVHR8ESDBGMCGgH6AdhhtodHRwOi8vbXlob3N0LmNvbS9teWNhMS5jcmwwIaAf
oB2GG2h0dHA6Ly9teWhvc3QuY29tL215Y2EyLmNybDBGBgNVHSAEPzA9MDEGCWCG
SAGG/WwBATAkMCIGCCsGAQUFBwIBFhZodHRwczovL215aG9zdC5jb20vQ1BTMAgG
BmeBDAECAjBSBggrBgEFBQcBAQRGMEQwIAYIKwYBBQUHMAGGFGh0dHA6Ly9vY3Nw
Lm15Lmhvc3QvMCAGCCsGAQUFBzAChhRodHRwOi8vbXkuY2EvY2EuaHRtbDAMBgNV
HRMBAf8EAjAAMIGtBgNVHREEgaUwgaKCGWFlcm9zcGlrZS1hLTAudGVzdC1ydW5u
ZXKCGWFlcm9zcGlrZS1hLTEudGVzdC1ydW5uZXKCGWFlcm9zcGlrZS1hLTIudGVz
dC1ydW5uZXKCGWFlcm9zcGlrZS1hLTMudGVzdC1ydW5uZXKCGWFlcm9zcGlrZS1h
LTQudGVzdC1ydW5uZXKCGWFlcm9zcGlrZS1hLTUudGVzdC1ydW5uZXIwDQYJKoZI
hvcNAQELBQADggEBACvtHpBNDrOROo7h4tIdVn4jRx5+nv52Hr/NWayUD1NhN9Nm
eTMjYyIJMUVFnpc0x5XaRhWhXwl6a3F5C28MPb+SseQO0fbJB8LfyTlyQPVlTEcX
dEZ71AwX9qkuD07+Nw592ynNwmz6mvSVkAKuMNTsq5mvFv0DCGyWJu/CzDuBNFwa
SC+10hyLGyP2Qb6bqRCYuyOKXPCbfNMUf8VYqLKMjaRh/p0grq6M95y6YU4OzZsa
F6IA+BbA8EliASkFvkAQbbTFs1jU55/SDpvGfzRbjZSjUPbCht9t64KMILmDU1fH
yXa9mE68NS1pNEMYcWNR0R3OI+wxj+qzD/yHSns=
-----END CERTIFICATE-----
Certificate:
    Data:
        Version: 3 (0x2)
        Serial Number:
            48:d4:6e:97:b3:ae:c4:97:0c:2b:e5:42:37:f3:69:22
        Signature Algorithm: sha256WithRSAEncryption
        Issuer: C=US, ST=CA, L=Mountain View, O=Aerospike, Inc., OU=Engineering Test, CN=Root CA
        IssuerFile: cacert.pem
        Validity
            Not Before: May 28 18:02:48 2021 GMT
            Not After : May 27 18:02:48 2025 GMT
        Subject: C=US, ST=CA, O=Aerospike, Inc., OU=Engineering Test, CN=Chain Signing Cert
        Subject Public Key Info:
            Public Key Algorithm: rsaEncryption
                RSA Public-Key: (2048 bit)
                Modulus:
                    00:d1:80:14:3e:90:16:75:c7:a9:7a:60:af:3f:77:
                    f5:b2:12:5e:17:ea:dd:2d:1e:bd:19:98:a0:b2:4e:
                    1e:ed:25:fb:6d:64:e6:98:de:0a:2b:29:e4:af:d2:
                    f5:3c:62:43:fc:a7:e3:2c:a8:5f:b0:27:2b:b4:c9:
                    f4:d5:6c:57:18:d9:55:7c:e1:88:2c:27:54:ee:58:
                    75:9f:33:6d:6f:8c:e5:61:b9:d4:f2:f9:ae:d8:0d:
                    b2:0f:3f:32:56:f0:f7:d2:06:29:25:c0:ac:de:a7:
                    93:f2:cc:f1:97:65:b4:14:19:d2:3d:47:9e:a4:40:
                    2e:fa:ea:6e:75:37:15:6f:48:92:0e:9b:4b:13:fe:
                    30:09:62:dd:75:af:6d:de:70:fb:00:39:cf:94:80:
                    40:3b:57:b9:fe:08:f2:91:91:88:7e:fc:6a:62:65:
                    2f:2c:de:84:82:06:f3:27:1c:ac:ca:7d:c1:0e:23:
                    55:d7:44:66:44:24:6a:bc:fe:8a:a9:34:6c:6c:80:
                    f0:4a:43:a0:45:aa:b4:e3:03:8e:39:6b:b9:2e:ce:
                    c8:16:07:06:98:1f:d9:94:06:8b:98:a0:6a:69:d5:
                    8c:11:17:06:89:15:ab:e0:0f:0f:b5:81:9d:f9:29:
                    8c:05:a2:a5:0a:db:b7:31:f3:22:53:8f:fd:9e:53:
                    92:bd
                Exponent: 65537 (0x10001)
        X509v3 extensions:
            X509v3 Basic Constraints: critical
                CA:TRUE, pathlen:0
            X509v3 Key Usage: critical
                Digital Signature, Key Encipherment, Certificate Sign, CRL Sign
            X509v3 Extended Key Usage: 
                TLS Web Server Authentication, TLS Web Client Authentication
            Authority Information Access: 
                OCSP - URI:http://ocsp.my.host/

            X509v3 CRL Distribution Points: 

                Full Name:
                  URI:http://myhost.com/myca.crl

            X509v3 Certificate Policies: 
                Policy: X509v3 Any Policy
                  CPS: https://myhost.com/CPS

            X509v3 Subject Key Identifier: 
                92:11:1F:FE:7D:75:F4:75:B9:85:41:2F:B3:1A:72:68:34:BD:00:D2
            X509v3 Authority Key Identifier: 
                keyid:5C:D4:00:48:38:47:42:1F:3A:39:14:BC:D4:D5:B7:84:B8:83:44:CD

    Signature Algorithm: sha256WithRSAEncryption
         1c:38:e2:d6:4b:af:b5:45:e6:d9:06:86:c1:35:be:84:4c:e8:
         72:c0:62:3b:d9:bc:3a:06:53:1b:66:85:79:b5:38:34:fb:ea:
         74:a2:af:ac:20:74:fd:f0:19:4d:27:36:a3:22:77:01:8c:90:
         69:56:7f:b4:88:68:c7:cc:09:b9:24:88:a7:2c:56:cc:b7:20:
         98:7b:57:d0:75:53:67:ac:6c:95:40:94:93:6b:89:f1:04:aa:
         9a:ff:2e:1c:43:78:9e:a6:e0:c8:88:8c:8f:73:4f:44:9f:95:
         f4:c5:d5:9b:c7:ae:8f:f9:8e:1f:50:d1:dd:2c:65:cc:0b:67:
         b0:9a:3f:f8:1c:df:8b:75:8f:82:9c:7c:1c:02:6a:fa:94:70:
         62:0a:e1:8f:85:e1:0e:96:95:3a:30:8d:96:b4:30:ce:16:91:
         0a:51:93:e1:07:4e:8d:a4:8f:69:76:88:c9:47:22:e7:31:d9:
         c4:22:ac:f1:75:df:c5:92:84:92:ea:b8:a6:70:e3:ce:bf:c8:
         47:d8:82:88:35:5b:5c:37:19:0f:16:c0:90:42:64:40:a0:b2:
         1f:d9:70:4f:3a:52:2f:e6:43:7d:a6:b3:ef:1c:ea:b2:e6:6a:
         57:80:17:29:20:71:a3:61:f8:e7:20:6f:d1:f6:16:ec:f2:c6:
         2f:8a:a4:ff
-----BEGIN CERTIFICATE-----
MIIEkDCCA3igAwIBAgIQSNRul7OuxJcMK+VCN/NpIjANBgkqhkiG9w0BAQsFADB5
MQswCQYDVQQGEwJVUzELMAkGA1UECAwCQ0ExFjAUBgNVBAcMDU1vdW50YWluIFZp
ZXcxGDAWBgNVBAoMD0Flcm9zcGlrZSwgSW5jLjEZMBcGA1UECwwQRW5naW5lZXJp
bmcgVGVzdDEQMA4GA1UEAwwHUm9vdCBDQTAeFw0yMTA1MjgxODAyNDhaFw0yNTA1
MjcxODAyNDhaMGwxCzAJBgNVBAYTAlVTMQswCQYDVQQIDAJDQTEYMBYGA1UECgwP
QWVyb3NwaWtlLCBJbmMuMRkwFwYDVQQLDBBFbmdpbmVlcmluZyBUZXN0MRswGQYD
VQQDDBJDaGFpbiBTaWduaW5nIENlcnQwggEiMA0GCSqGSIb3DQEBAQUAA4IBDwAw
ggEKAoIBAQDRgBQ+kBZ1x6l6YK8/d/WyEl4X6t0tHr0ZmKCyTh7tJfttZOaY3gor
KeSv0vU8YkP8p+MsqF+wJyu0yfTVbFcY2VV84YgsJ1TuWHWfM21vjOVhudTy+a7Y
DbIPPzJW8PfSBiklwKzep5PyzPGXZbQUGdI9R56kQC766m51NxVvSJIOm0sT/jAJ
Yt11r23ecPsAOc+UgEA7V7n+CPKRkYh+/GpiZS8s3oSCBvMnHKzKfcEOI1XXRGZE
JGq8/oqpNGxsgPBKQ6BFqrTjA445a7kuzsgWBwaYH9mUBouYoGpp1YwRFwaJFavg
Dw+1gZ35KYwFoqUK27cx8yJTj/2eU5K9AgMBAAGjggEfMIIBGzASBgNVHRMBAf8E
CDAGAQH/AgEAMA4GA1UdDwEB/wQEAwIBpjAdBgNVHSUEFjAUBggrBgEFBQcDAQYI
KwYBBQUHAwIwMAYIKwYBBQUHAQEEJDAiMCAGCCsGAQUFBzABhhRodHRwOi8vb2Nz
cC5teS5ob3N0LzArBgNVHR8EJDAiMCCgHqAchhpodHRwOi8vbXlob3N0LmNvbS9t
eWNhLmNybDA3BgNVHSAEMDAuMCwGBFUdIAAwJDAiBggrBgEFBQcCARYWaHR0cHM6
Ly9teWhvc3QuY29tL0NQUzAdBgNVHQ4EFgQUkhEf/n119HW5hUEvsxpyaDS9ANIw
HwYDVR0jBBgwFoAUXNQASDhHQh86ORS81NW3hLiDRM0wDQYJKoZIhvcNAQELBQAD
ggEBABw44tZLr7VF5tkGhsE1voRM6HLAYjvZvDoGUxtmhXm1ODT76nSir6wgdP3w
GU0nNqMidwGMkGlWf7SIaMfMCbkkiKcsVsy3IJh7V9B1U2esbJVAlJNrifEEqpr/
LhxDeJ6m4MiIjI9zT0SflfTF1ZvHro/5jh9Q0d0sZcwLZ7CaP/gc34t1j4KcfBwC
avqUcGIK4Y+F4Q6WlTowjZa0MM4WkQpRk+EHTo2kj2l2iMlHIucx2cQirPF138WS
hJLquKZw486/yEfYgog1W1w3GQ8WwJBCZECgsh/ZcE86Ui/mQ32ms+8c6rLmaleA
FykgcaNh+Ocgb9H2Fuzyxi+KpP8=
-----END CERTIFICATE-----