Certificate:
    Data:
        Version: 3 (0x2)
        Serial Number: 17696754777573316146 (0xf59780b572745632)
    Signature Algorithm: sha256WithRSAEncryption
        Issuer: C=US, ST=CA, L=Mountain View, O=Aerospike, Inc., OU=Engineering Test, CN=Root CA
        Validity
            Not Before: Mar  1 09:17:24 2017 GMT
            Not After : Mar  1 09:17:24 2037 GMT
        Subject: C=US, ST=CA, L=Mountain View, O=Aerospike, Inc., OU=Engineering Test, CN=Root CA
        Subject Public Key Info:
            Public Key Algorithm: rsaEncryption
                Public-Key: (2048 bit)
                Modulus:
                    00:94:be:f6:14:6c:66:62:ba:9a:ed:94:65:20:ef:
                    b9:33:87:f5:27:63:f5:f2:f0:1d:60:83:24:90:10:
                    aa:76:0f:51:81:eb:e3:d4:21:b8:ef:17:4e:7f:d9:
                    46:0b:d4:42:3f:d1:46:3f:62:6d:4b:d4:ce:d9:18:
                    29:a1:45:e0:e7:11:e5:09:a2:fd:cd:f4:e4:02:fb:
                    f9:24:f0:9b:9b:ab:93:26:b3:89:9c:37:29:2f:a6:
                    19:06:98:b7:0d:47:74:f7:8b:b2:6d:31:62:7e:eb:
                    d5:2d:4c:d4:f0:42:22:d6:cd:d4:2c:40:3b:c6:71:
                    1d:a8:3d:37:43:34:be:e6:17:84:63:76:9d:71:c8:
                    27:ae:1f:25:e2:53:aa:f0:e4:e1:59:a1:8b:8c:72:
                    d2:a3:da:04:61:f3:31:5d:20:2a:c4:c7:b5:36:cd:
                    d2:ef:60:69:af:3e:48:27:16:7f:c0:c0:19:79:60:
                    94:72:a8:1a:1f:31:be:2b:da:f1:11:0f:23:25:88:
                    58:0f:88:46:38:fd:42:ea:fb:9a:ed:34:e7:56:14:
                    32:f5:cc:2a:e7:47:8e:0a:a7:57:4c:4a:11:96:50:
                    60:c5:4e:2c:8e:02:a2:23:0f:7c:ed:10:ba:a3:90:
                    48:54:10:c3:9f:54:d8:bc:eb:1b:53:14:2f:0f:16:
                    d5:f7
                Exponent: 65537 (0x10001)
        X509v3 extensions:
            X509v3 Key Usage: critical
                Digital Signature, Certificate Sign, CRL Sign
            X509v3 Basic Constraints: critical
                CA:TRUE
            X509v3 Subject Key Identifier: 
                64:AC:C8:9B:D4:CD:17:AA:5A:E3:41:6E:21:E4:CD:E4:39:AC:8F:1E
            X509v3 Authority Key Identifier: 
                keyid:64:AC:C8:9B:D4:CD:17:AA:5A:E3:41:6E:21:E4:CD:E4:39:AC:8F:1E

    Signature Algorithm: sha256WithRSAEncryption
         5a:27:a7:35:f0:a6:a2:70:5c:ce:08:0e:bb:77:e9:44:c2:43:
         a4:9d:34:cf:d6:10:fa:68:0e:93:59:3b:e4:c4:c2:51:56:56:
         3d:6e:b7:2d:65:8c:3d:74:cc:e8:f1:c7:08:86:f3:e8:9f:77:
         1a:73:ea:02:14:2e:ce:83:5a:5b:ca:d7:c4:87:f1:81:50:64:
         97:bd:22:a2:33:3b:90:a9:ea:8f:ad:e7:c4:13:1a:f1:18:da:
         f3:f0:6b:3d:4a:c9:c4:6a:7a:9b:d0:f8:93:aa:65:a8:17:9b:
         eb:af:4f:25:13:a2:cd:a6:02:a9:0f:d0:33:4c:34:dd:14:fd:
         1c:4a:08:eb:89:82:10:70:8b:8a:d9:4c:6d:d8:44:48:65:16:
         a5:ed:b6:15:8d:92:2f:21:d2:52:70:a2:e8:1f:57:a2:54:78:
         78:ce:3f:ad:32:26:d1:ee:b7:cc:29:68:2e:9e:e5:f9:28:07:
         2b:90:98:32:80:b5:45:3c:f4:6b:9f:c1:bc:b7:55:97:b4:a1:
         d2:21:b4:d6:60:af:9d:6a:16:fd:29:0a:21:2c:00:70:f3:46:
         5b:31:f4:11:74:8d:da:74:a6:ec:c8:72:3e:b1:8a:92:1e:26:
         78:0e:4c:a8:c7:70:5f:9b:35:00:bd:0c:96:5a:71:83:b4:92:
         dc:e8:84:ea
-----BEGIN CERTIFICATE-----
MIID2DCCAsCgAwIBAgIJAPWXgLVydFYyMA0GCSqGSIb3DQEBCwUAMHkxCzAJBgNV
BAYTAlVTMQswCQYDVQQIDAJDQTEWMBQGA1UEBwwNTW91bnRhaW4gVmlldzEYMBYG
A1UECgwPQWVyb3NwaWtlLCBJbmMuMRkwFwYDVQQLDBBFbmdpbmVlcmluZyBUZXN0
MRAwDgYDVQQDDAdSb290IENBMB4XDTE3MDMwMTA5MTcyNFoXDTM3MDMwMTA5MTcy
NFoweTELMAkGA1UEBhMCVVMxCzAJBgNVBAgMAkNBMRYwFAYDVQQHDA1Nb3VudGFp
biBWaWV3MRgwFgYDVQQKDA9BZXJvc3Bpa2UsIEluYy4xGTAXBgNVBAsMEEVuZ2lu
ZWVyaW5nIFRlc3QxEDAOBgNVBAMMB1Jvb3QgQ0EwggEiMA0GCSqGSIb3DQEBAQUA
A4IBDwAwggEKAoIBAQCUvvYUbGZiuprtlGUg77kzh/UnY/Xy8B1ggySQEKp2D1GB
6+PUIbjvF05/2UYL1EI/0UY/Ym1L1M7ZGCmhReDnEeUJov3N9OQC+/kk8Jubq5Mm
s4mcNykvphkGmLcNR3T3i7JtMWJ+69UtTNTwQiLWzdQsQDvGcR2oPTdDNL7mF4Rj
dp1xyCeuHyXiU6rw5OFZoYuMctKj2gRh8zFdICrEx7U2zdLvYGmvPkgnFn/AwBl5
YJRyqBofMb4r2vERDyMliFgPiEY4/ULq+5rtNOdWFDL1zCrnR44Kp1dMShGWUGDF
TiyOAqIjD3ztELqjkEhUEMOfVNi86xtTFC8PFtX3AgMBAAGjYzBhMA4GA1UdDwEB
/wQEAwIBhjAPBgNVHRMBAf8EBTADAQH/MB0GA1UdDgQWBBRkrMib1M0XqlrjQW4h
5M3kOayPHjAfBgNVHSMEGDAWgBRkrMib1M0XqlrjQW4h5M3kOayPHjANBgkqhkiG
9w0BAQsFAAOCAQEAWienNfCmonBczggOu3fpRMJDpJ00z9YQ+mgOk1k75MTCUVZW
PW63LWWMPXTM6PHHCIbz6J93GnPqAhQuzoNaW8rXxIfxgVBkl70iojM7kKnqj63n
xBMa8Rja8/BrPUrJxGp6m9D4k6plqBeb669PJROizaYCqQ/QM0w03RT9HEoI64mC
EHCLitlMbdhESGUWpe22FY2SLyHSUnCi6B9XolR4eM4/rTIm0e63zCloLp7l+SgH
K5CYMoC1RTz0a5/BvLdVl7Sh0iG01mCvnWoW/SkKISwAcPNGWzH0EXSN2nSm7Mhy
PrGKkh4meA5MqMdwX5s1AL0Mllpxg7SS3OiE6g==
-----END CERTIFICATE-----
