Certificate:
    Data:
        Version: 3 (0x2)
        Serial Number:
            4b:79:fa:93:c7:30:bc:cd:78:7d:49:0a:a1:bb:45:60
    Signature Algorithm: sha256WithRSAEncryption
        Issuer: C=US, ST=CA, O=Aerospike, Inc., OU=Engineering Test, CN=Chain Signing Cert
        Validity
            Not Before: Mar  1 09:17:26 2017 GMT
            Not After : Feb 28 09:17:26 2021 GMT
        Subject: C=US, ST=CA, O=Aerospike, Inc., OU=Cluster Name Test, CN=bob-cluster-c
        Subject Public Key Info:
            Public Key Algorithm: rsaEncryption
                Public-Key: (2048 bit)
                Modulus:
                    00:bc:5b:26:5e:a6:58:cc:de:91:fb:02:44:52:fe:
                    66:b5:01:b2:0b:7c:a9:7e:17:d6:5b:a1:9b:c5:b0:
                    f9:99:30:6b:2e:41:eb:22:cf:e5:29:77:2f:e2:b1:
                    dd:0e:bd:5a:1c:dc:15:d1:79:6c:38:8d:a5:8e:da:
                    09:8f:68:b2:dc:c5:0b:de:e6:df:33:76:d1:6a:65:
                    c7:29:d5:32:48:d5:25:c6:e6:1c:7b:3c:27:8b:f8:
                    83:24:38:4d:f3:9b:13:28:cf:b6:b2:f1:a4:36:58:
                    36:aa:7b:4c:40:9c:d9:c0:2b:b3:93:8b:45:93:da:
                    02:17:e5:20:07:3c:ae:d2:70:b0:c8:1e:f0:04:20:
                    0e:e4:1c:f3:79:fe:ff:19:fe:7b:09:a1:fd:e1:54:
                    85:0e:c5:47:8e:62:d1:8b:99:c6:46:5f:9e:45:02:
                    2c:fb:f5:86:3e:26:c3:5a:71:df:0f:4c:81:cb:d5:
                    12:fa:58:f2:20:44:65:65:85:ac:2d:94:f9:a0:28:
                    a4:a5:46:88:f6:7e:7f:18:c0:7b:15:be:b7:2a:cf:
                    be:2d:87:e2:10:ac:c6:71:a3:b4:0d:fd:09:50:df:
                    14:96:c0:ca:a8:28:e0:13:f1:b4:cd:f5:45:db:37:
                    7b:cb:4e:d9:03:93:e3:78:d9:c4:06:26:10:d0:76:
                    42:27
                Exponent: 65537 (0x10001)
        X509v3 extensions:
            X509v3 Authority Key Identifier: 
                keyid:CE:35:78:D2:B9:17:32:71:07:B9:F5:FC:89:C0:B7:D8:C2:89:A8:31

            X509v3 Subject Key Identifier: 
                4D:15:90:3B:9F:34:5E:CC:A6:8A:2D:7F:B0:11:8D:F5:E9:1F:A7:DF
            X509v3 Key Usage: critical
                Digital Signature, Key Encipherment
            X509v3 Extended Key Usage: 
                TLS Web Server Authentication, TLS Web Client Authentication
            X509v3 CRL Distribution Points: 

                Full Name:
                  URI:http://myhost.com/myca1.crl

                Full Name:
                  URI:http://myhost.com/myca2.crl

            X509v3 Certificate Policies: 
                Policy: 2.16.840.1.114412.1.1
                  CPS: https://myhost.com/CPS
                Policy: 2.23.140.1.2.2

            Authority Information Access: 
                OCSP - URI:http://ocsp.my.host/
                CA Issuers - URI:http://my.ca/ca.html

            X509v3 Basic Constraints: critical
                CA:FALSE
    Signature Algorithm: sha256WithRSAEncryption
         6d:86:ee:94:a0:0f:b9:20:48:a8:d8:4b:a1:f7:a3:73:12:e6:
         09:23:67:b6:c1:65:c1:3c:d1:fc:a2:b5:eb:ff:06:c0:3d:02:
         ed:29:c8:31:52:de:21:37:f9:06:4a:6a:61:7e:1d:85:9e:c1:
         ba:a7:98:ac:65:e1:08:ef:8e:1c:00:46:ff:42:45:a1:e7:a8:
         5f:b5:7b:1b:d7:65:70:28:cc:62:f8:d3:54:b1:b6:33:0a:86:
         a1:3b:c6:c0:23:ab:7b:08:6b:e8:01:7c:30:72:1b:ce:65:f1:
         c2:02:a7:95:35:e8:98:d8:fd:29:0a:f5:2e:38:7c:ba:d7:3e:
         78:2f:28:95:bd:2a:fb:c3:c2:50:56:21:22:67:d3:0e:15:e4:
         65:5c:47:e6:7c:9e:62:82:63:32:1e:7f:ab:2b:9c:61:28:6b:
         f1:38:4c:c7:b0:70:9d:66:61:ab:89:aa:83:4b:dc:5e:5e:73:
         28:43:fa:a1:95:10:4b:3d:fd:8c:f0:bd:81:11:df:5c:14:91:
         b0:c4:fb:17:bd:4b:85:4c:2e:9e:fe:e0:bb:f8:83:fd:49:a7:
         4c:28:55:a2:97:15:6f:2a:59:83:0b:7d:87:6b:60:16:61:45:
         5e:44:67:3d:5b:16:9a:11:fb:ba:f1:51:1f:2b:39:48:74:26:
         9b:88:8a:fc
-----BEGIN CERTIFICATE-----
MIIEzjCCA7agAwIBAgIQS3n6k8cwvM14fUkKobtFYDANBgkqhkiG9w0BAQsFADBs
MQswCQYDVQQGEwJVUzELMAkGA1UECAwCQ0ExGDAWBgNVBAoMD0Flcm9zcGlrZSwg
SW5jLjEZMBcGA1UECwwQRW5naW5lZXJpbmcgVGVzdDEbMBkGA1UEAwwSQ2hhaW4g
U2lnbmluZyBDZXJ0MB4XDTE3MDMwMTA5MTcyNloXDTIxMDIyODA5MTcyNlowaDEL
MAkGA1UEBhMCVVMxCzAJBgNVBAgMAkNBMRgwFgYDVQQKDA9BZXJvc3Bpa2UsIElu
Yy4xGjAYBgNVBAsMEUNsdXN0ZXIgTmFtZSBUZXN0MRYwFAYDVQQDDA1ib2ItY2x1
c3Rlci1jMIIBIjANBgkqhkiG9w0BAQEFAAOCAQ8AMIIBCgKCAQEAvFsmXqZYzN6R
+wJEUv5mtQGyC3ypfhfWW6GbxbD5mTBrLkHrIs/lKXcv4rHdDr1aHNwV0XlsOI2l
jtoJj2iy3MUL3ubfM3bRamXHKdUySNUlxuYcezwni/iDJDhN85sTKM+2svGkNlg2
qntMQJzZwCuzk4tFk9oCF+UgBzyu0nCwyB7wBCAO5Bzzef7/Gf57CaH94VSFDsVH
jmLRi5nGRl+eRQIs+/WGPibDWnHfD0yBy9US+ljyIERlZYWsLZT5oCikpUaI9n5/
GMB7Fb63Ks++LYfiEKzGcaO0Df0JUN8UlsDKqCjgE/G0zfVF2zd7y07ZA5PjeNnE
BiYQ0HZCJwIDAQABo4IBbjCCAWowHwYDVR0jBBgwFoAUzjV40rkXMnEHufX8icC3
2MKJqDEwHQYDVR0OBBYEFE0VkDufNF7Mpootf7ARjfXpH6ffMA4GA1UdDwEB/wQE
AwIFoDAdBgNVHSUEFjAUBggrBgEFBQcDAQYIKwYBBQUHAwIwTwYDVR0fBEgwRjAh
oB+gHYYbaHR0cDovL215aG9zdC5jb20vbXljYTEuY3JsMCGgH6AdhhtodHRwOi8v
bXlob3N0LmNvbS9teWNhMi5jcmwwRgYDVR0gBD8wPTAxBglghkgBhv1sAQEwJDAi
BggrBgEFBQcCARYWaHR0cHM6Ly9teWhvc3QuY29tL0NQUzAIBgZngQwBAgIwUgYI
KwYBBQUHAQEERjBEMCAGCCsGAQUFBzABhhRodHRwOi8vb2NzcC5teS5ob3N0LzAg
BggrBgEFBQcwAoYUaHR0cDovL215LmNhL2NhLmh0bWwwDAYDVR0TAQH/BAIwADAN
BgkqhkiG9w0BAQsFAAOCAQEAbYbulKAPuSBIqNhLofejcxLmCSNntsFlwTzR/KK1
6/8GwD0C7SnIMVLeITf5BkpqYX4dhZ7BuqeYrGXhCO+OHABG/0JFoeeoX7V7G9dl
cCjMYvjTVLG2MwqGoTvGwCOrewhr6AF8MHIbzmXxwgKnlTXomNj9KQr1Ljh8utc+
eC8olb0q+8PCUFYhImfTDhXkZVxH5nyeYoJjMh5/qyucYShr8ThMx7BwnWZhq4mq
g0vcXl5zKEP6oZUQSz39jPC9gRHfXBSRsMT7F71LhUwunv7gu/iD/UmnTChVopcV
bypZgwt9h2tgFmFFXkRnPVsWmhH7uvFRHys5SHQmm4iK/A==
-----END CERTIFICATE-----
Certificate:
    Data:
        Version: 3 (0x2)
        Serial Number:
            7f:da:44:82:88:ad:3b:c6:d8:0c:59:84:2d:88:13:dc
    Signature Algorithm: sha256WithRSAEncryption
        Issuer: C=US, ST=CA, L=Mountain View, O=Aerospike, Inc., OU=Engineering Test, CN=Root CA
        Validity
            Not Before: Mar  1 09:17:24 2017 GMT
            Not After : Feb 28 09:17:24 2021 GMT
        Subject: C=US, ST=CA, O=Aerospike, Inc., OU=Engineering Test, CN=Chain Signing Cert
        Subject Public Key Info:
            Public Key Algorithm: rsaEncryption
                Public-Key: (2048 bit)
                Modulus:
                    00:a4:43:b5:7e:d8:8c:6d:e5:d2:e6:37:8f:b0:05:
                    f3:52:4f:5b:58:c3:82:ff:18:bb:a0:41:0a:1d:58:
                    5e:78:ed:58:a6:09:52:7c:64:2f:0e:2e:05:d8:49:
                    2b:00:72:e1:37:8b:94:06:c5:46:2b:5f:43:3d:c3:
                    4a:64:d3:93:1e:45:69:10:70:f7:10:76:da:84:0b:
                    bc:bd:7f:5b:07:fd:e1:e1:91:29:c8:b5:07:97:b9:
                    fd:1f:60:7f:a9:b3:e6:31:ef:e5:02:79:8b:89:9d:
                    9a:31:71:7e:f8:44:0d:9f:70:ea:60:5a:d8:6d:df:
                    35:73:f1:0e:6b:ce:b7:9b:c7:c8:76:ed:38:99:9f:
                    10:09:3c:7a:80:36:96:38:e0:38:a4:6c:0f:32:c4:
                    10:85:9e:9b:3f:ed:17:ed:b1:d5:e0:28:ae:0e:0c:
                    24:17:c0:d8:9a:97:c4:1a:b0:81:36:a1:57:fd:d6:
                    e3:85:a3:c6:a0:8d:a1:7d:4e:65:a3:52:a6:09:0e:
                    38:a9:06:b7:df:43:43:81:f7:b1:a4:ec:34:be:d3:
                    4f:c7:2d:a1:2d:3f:9a:2f:3a:e6:87:10:16:11:19:
                    69:44:00:27:ba:f3:64:f7:d7:15:1b:75:9f:1e:57:
                    97:52:be:53:f1:41:98:2f:f8:d9:2e:96:03:8a:6a:
                    5f:4f
                Exponent: 65537 (0x10001)
        X509v3 extensions:
            X509v3 Basic Constraints: critical
                CA:TRUE, pathlen:0
            X509v3 Key Usage: critical
                Digital Signature, Key Encipherment, Certificate Sign, CRL Sign
            X509v3 Extended Key Usage: 
                TLS Web Server Authentication, TLS Web Client Authentication
            Authority Information Access: 
                OCSP - URI:http://ocsp.my.host/

            X509v3 CRL Distribution Points: 

                Full Name:
                  URI:http://myhost.com/myca.crl

            X509v3 Certificate Policies: 
                Policy: X509v3 Any Policy
                  CPS: https://myhost.com/CPS

            X509v3 Subject Key Identifier: 
                CE:35:78:D2:B9:17:32:71:07:B9:F5:FC:89:C0:B7:D8:C2:89:A8:31
            X509v3 Authority Key Identifier: 
                keyid:64:AC:C8:9B:D4:CD:17:AA:5A:E3:41:6E:21:E4:CD:E4:39:AC:8F:1E

    Signature Algorithm: sha256WithRSAEncryption
         02:35:01:06:75:8b:29:2f:fc:86:04:ba:a8:6e:47:52:4c:9e:
         f5:53:52:05:7a:3b:36:46:8a:32:d9:6e:c8:90:26:39:b8:a2:
         e0:20:34:7d:eb:1a:8e:1e:29:d6:79:d4:44:ae:80:2c:f7:2e:
         33:8e:ad:b6:6d:44:f7:86:fc:a3:38:65:8f:d8:a3:df:5a:e5:
         4c:f7:39:65:1c:26:69:72:e7:25:57:ca:e9:fb:be:fe:bd:bd:
         84:bf:3e:64:82:b1:01:13:e0:ec:2d:af:67:39:a9:0e:d3:7b:
         68:8c:39:d3:9c:88:b6:42:db:62:97:8f:7d:f3:d3:31:6b:00:
         c8:cf:7f:11:14:14:a8:cb:75:f2:61:2c:ca:e7:3a:fe:7a:bc:
         9c:46:5d:ee:8f:9f:bc:0e:56:52:df:98:3e:b4:1a:05:58:0a:
         a3:ec:c9:06:5c:fb:0e:43:26:78:d0:b9:e0:65:bd:e8:cf:56:
         3e:2b:68:08:9a:ff:0f:20:69:63:3d:b5:4a:fc:03:92:dc:5f:
         97:2e:1e:10:2c:21:1b:73:b6:70:e3:2f:85:1d:f6:61:5b:e7:
         3f:b9:11:72:a3:71:3e:c4:d1:85:58:44:e9:cd:26:e4:e5:02:
         ed:9b:83:14:17:a6:0d:e7:9c:bc:1e:26:4c:da:ea:30:29:e3:
         8f:17:f9:c6
-----BEGIN CERTIFICATE-----
MIIEkDCCA3igAwIBAgIQf9pEgoitO8bYDFmELYgT3DANBgkqhkiG9w0BAQsFADB5
MQswCQYDVQQGEwJVUzELMAkGA1UECAwCQ0ExFjAUBgNVBAcMDU1vdW50YWluIFZp
ZXcxGDAWBgNVBAoMD0Flcm9zcGlrZSwgSW5jLjEZMBcGA1UECwwQRW5naW5lZXJp
bmcgVGVzdDEQMA4GA1UEAwwHUm9vdCBDQTAeFw0xNzAzMDEwOTE3MjRaFw0yMTAy
MjgwOTE3MjRaMGwxCzAJBgNVBAYTAlVTMQswCQYDVQQIDAJDQTEYMBYGA1UECgwP
QWVyb3NwaWtlLCBJbmMuMRkwFwYDVQQLDBBFbmdpbmVlcmluZyBUZXN0MRswGQYD
VQQDDBJDaGFpbiBTaWduaW5nIENlcnQwggEiMA0GCSqGSIb3DQEBAQUAA4IBDwAw
ggEKAoIBAQCkQ7V+2Ixt5dLmN4+wBfNST1tYw4L/GLugQQodWF547VimCVJ8ZC8O
LgXYSSsAcuE3i5QGxUYrX0M9w0pk05MeRWkQcPcQdtqEC7y9f1sH/eHhkSnItQeX
uf0fYH+ps+Yx7+UCeYuJnZoxcX74RA2fcOpgWtht3zVz8Q5rzrebx8h27TiZnxAJ
PHqANpY44DikbA8yxBCFnps/7RftsdXgKK4ODCQXwNial8QasIE2oVf91uOFo8ag
jaF9TmWjUqYJDjipBrffQ0OB97Gk7DS+00/HLaEtP5ovOuaHEBYRGWlEACe682T3
1xUbdZ8eV5dSvlPxQZgv+NkulgOKal9PAgMBAAGjggEfMIIBGzASBgNVHRMBAf8E
CDAGAQH/AgEAMA4GA1UdDwEB/wQEAwIBpjAdBgNVHSUEFjAUBggrBgEFBQcDAQYI
KwYBBQUHAwIwMAYIKwYBBQUHAQEEJDAiMCAGCCsGAQUFBzABhhRodHRwOi8vb2Nz
cC5teS5ob3N0LzArBgNVHR8EJDAiMCCgHqAchhpodHRwOi8vbXlob3N0LmNvbS9t
eWNhLmNybDA3BgNVHSAEMDAuMCwGBFUdIAAwJDAiBggrBgEFBQcCARYWaHR0cHM6
Ly9teWhvc3QuY29tL0NQUzAdBgNVHQ4EFgQUzjV40rkXMnEHufX8icC32MKJqDEw
HwYDVR0jBBgwFoAUZKzIm9TNF6pa40FuIeTN5Dmsjx4wDQYJKoZIhvcNAQELBQAD
ggEBAAI1AQZ1iykv/IYEuqhuR1JMnvVTUgV6OzZGijLZbsiQJjm4ouAgNH3rGo4e
KdZ51ESugCz3LjOOrbZtRPeG/KM4ZY/Yo99a5Uz3OWUcJmly5yVXyun7vv69vYS/
PmSCsQET4Owtr2c5qQ7Te2iMOdOciLZC22KXj33z0zFrAMjPfxEUFKjLdfJhLMrn
Ov56vJxGXe6Pn7wOVlLfmD60GgVYCqPsyQZc+w5DJnjQueBlvejPVj4raAia/w8g
aWM9tUr8A5LcX5cuHhAsIRtztnDjL4Ud9mFb5z+5EXKjcT7E0YVYROnNJuTlAu2b
gxQXpg3nnLweJkza6jAp448X+cY=
-----END CERTIFICATE-----
