Certificate:
    Data:
        Version: 3 (0x2)
        Serial Number:
            4b:79:fa:93:c7:30:bc:cd:78:7d:49:0a:a1:bb:45:60
    Signature Algorithm: sha256WithRSAEncryption
        Issuer: C=US, ST=CA, O=Aerospike, Inc., OU=Engineering Test, CN=Chain Signing Cert
        Validity
            Not Before: Mar  1 09:17:26 2017 GMT
            Not After : Feb 28 09:17:26 2021 GMT
        Subject: C=US, ST=CA, O=Aerospike, Inc., OU=Cluster Name Test, CN=bob-cluster-c
        Subject Public Key Info:
            Public Key Algorithm: rsaEncryption
                Public-Key: (2048 bit)
                Modulus:
                    00:bc:5b:26:5e:a6:58:cc:de:91:fb:02:44:52:fe:
                    66:b5:01:b2:0b:7c:a9:7e:17:d6:5b:a1:9b:c5:b0:
                    f9:99:30:6b:2e:41:eb:22:cf:e5:29:77:2f:e2:b1:
                    dd:0e:bd:5a:1c:dc:15:d1:79:6c:38:8d:a5:8e:da:
                    09:8f:68:b2:dc:c5:0b:de:e6:df:33:76:d1:6a:65:
                    c7:29:d5:32:48:d5:25:c6:e6:1c:7b:3c:27:8b:f8:
                    83:24:38:4d:f3:9b:13:28:cf:b6:b2:f1:a4:36:58:
                    36:aa:7b:4c:40:9c:d9:c0:2b:b3:93:8b:45:93:da:
                    02:17:e5:20:07:3c:ae:d2:70:b0:c8:1e:f0:04:20:
                    0e:e4:1c:f3:79:fe:ff:19:fe:7b:09:a1:fd:e1:54:
                    85:0e:c5:47:8e:62:d1:8b:99:c6:46:5f:9e:45:02:
                    2c:fb:f5:86:3e:26:c3:5a:71:df:0f:4c:81:cb:d5:
                    12:fa:58:f2:20:44:65:65:85:ac:2d:94:f9:a0:28:
                    a4:a5:46:88:f6:7e:7f:18:c0:7b:15:be:b7:2a:cf:
                    be:2d:87:e2:10:ac:c6:71:a3:b4:0d:fd:09:50:df:
                    14:96:c0:ca:a8:28:e0:13:f1:b4:cd:f5:45:db:37:
                    7b:cb:4e:d9:03:93:e3:78:d9:c4:06:26:10:d0:76:
                    42:27
                Exponent: 65537 (0x10001)
        X509v3 extensions:
            X509v3 Authority Key Identifier: 
                keyid:CE:35:78:D2:B9:17:32:71:07:B9:F5:FC:89:C0:B7:D8:C2:89:A8:31

            X509v3 Subject Key Identifier: 
                4D:15:90:3B:9F:34:5E:CC:A6:8A:2D:7F:B0:11:8D:F5:E9:1F:A7:DF
            X509v3 Key Usage: critical
                Digital Signature, Key Encipherment
            X509v3 Extended Key Usage: 
                TLS Web Server Authentication, TLS Web Client Authentication
            X509v3 CRL Distribution Points: 

                Full Name:
                  URI:http://myhost.com/myca1.crl

                Full Name:
                  URI:http://myhost.com/myca2.crl

            X509v3 Certificate Policies: 
                Policy: 2.16.840.1.114412.1.1
                  CPS: https://myhost.com/CPS
                Policy: 2.23.140.1.2.2

            Authority Information Access: 
                OCSP - URI:http://ocsp.my.host/
                CA Issuers - URI:http://my.ca/ca.html

            X509v3 Basic Constraints: critical
                CA:FALSE
    Signature Algorithm: sha256WithRSAEncryption
         6d:86:ee:94:a0:0f:b9:20:48:a8:d8:4b:a1:f7:a3:73:12:e6:
         09:23:67:b6:c1:65:c1:3c:d1:fc:a2:b5:eb:ff:06:c0:3d:02:
         ed:29:c8:31:52:de:21:37:f9:06:4a:6a:61:7e:1d:85:9e:c1:
         ba:a7:98:ac:65:e1:08:ef:8e:1c:00:46:ff:42:45:a1:e7:a8:
         5f:b5:7b:1b:d7:65:70:28:cc:62:f8:d3:54:b1:b6:33:0a:86:
         a1:3b:c6:c0:23:ab:7b:08:6b:e8:01:7c:30:72:1b:ce:65:f1:
         c2:02:a7:95:35:e8:98:d8:fd:29:0a:f5:2e:38:7c:ba:d7:3e:
         78:2f:28:95:bd:2a:fb:c3:c2:50:56:21:22:67:d3:0e:15:e4:
         65:5c:47:e6:7c:9e:62:82:63:32:1e:7f:ab:2b:9c:61:28:6b:
         f1:38:4c:c7:b0:70:9d:66:61:ab:89:aa:83:4b:dc:5e:5e:73:
         28:43:fa:a1:95:10:4b:3d:fd:8c:f0:bd:81:11:df:5c:14:91:
         b0:c4:fb:17:bd:4b:85:4c:2e:9e:fe:e0:bb:f8:83:fd:49:a7:
         4c:28:55:a2:97:15:6f:2a:59:83:0b:7d:87:6b:60:16:61:45:
         5e:44:67:3d:5b:16:9a:11:fb:ba:f1:51:1f:2b:39:48:74:26:
         9b:88:8a:fc
-----BEGIN CERTIFICATE-----
MIIEzjCCA7agAwIBAgIQS3n6k8cwvM14fUkKobtFYDANBgkqhkiG9w0BAQsFADBs
MQswCQYDVQQGEwJVUzELMAkGA1UECAwCQ0ExGDAWBgNVBAoMD0Flcm9zcGlrZSwg
SW5jLjEZMBcGA1UECwwQRW5naW5lZXJpbmcgVGVzdDEbMBkGA1UEAwwSQ2hhaW4g
U2lnbmluZyBDZXJ0MB4XDTE3MDMwMTA5MTcyNloXDTIxMDIyODA5MTcyNlowaDEL
MAkGA1UEBhMCVVMxCzAJBgNVBAgMAkNBMRgwFgYDVQQKDA9BZXJvc3Bpa2UsIElu
Yy4xGjAYBgNVBAsMEUNsdXN0ZXIgTmFtZSBUZXN0MRYwFAYDVQQDDA1ib2ItY2x1
c3Rlci1jMIIBIjANBgkqhkiG9w0BAQEFAAOCAQ8AMIIBCgKCAQEAvFsmXqZYzN6R
+wJEUv5mtQGyC3ypfhfWW6GbxbD5mTBrLkHrIs/lKXcv4rHdDr1aHNwV0XlsOI2l
jtoJj2iy3MUL3ubfM3bRamXHKdUySNUlxuYcezwni/iDJDhN85sTKM+2svGkNlg2
qntMQJzZwCuzk4tFk9oCF+UgBzyu0nCwyB7wBCAO5Bzzef7/Gf57CaH94VSFDsVH
jmLRi5nGRl+eRQIs+/WGPibDWnHfD0yBy9US+ljyIERlZYWsLZT5oCikpUaI9n5/
GMB7Fb63Ks++LYfiEKzGcaO0Df0JUN8UlsDKqCjgE/G0zfVF2zd7y07ZA5PjeNnE
BiYQ0HZCJwIDAQABo4IBbjCCAWowHwYDVR0jBBgwFoAUzjV40rkXMnEHufX8icC3
2MKJqDEwHQYDVR0OBBYEFE0VkDufNF7Mpootf7ARjfXpH6ffMA4GA1UdDwEB/wQE
AwIFoDAdBgNVHSUEFjAUBggrBgEFBQcDAQYIKwYBBQUHAwIwTwYDVR0fBEgwRjAh
oB+gHYYbaHR0cDovL215aG9zdC5jb20vbXljYTEuY3JsMCGgH6AdhhtodHRwOi8v
bXlob3N0LmNvbS9teWNhMi5jcmwwRgYDVR0gBD8wPTAxBglghkgBhv1sAQEwJDAi
BggrBgEFBQcCARYWaHR0cHM6Ly9teWhvc3QuY29tL0NQUzAIBgZngQwBAgIwUgYI
KwYBBQUHAQEERjBEMCAGCCsGAQUFBzABhhRodHRwOi8vb2NzcC5teS5ob3N0LzAg
BggrBgEFBQcwAoYUaHR0cDovL215LmNhL2NhLmh0bWwwDAYDVR0TAQH/BAIwADAN
BgkqhkiG9w0BAQsFAAOCAQEAbYbulKAPuSBIqNhLofejcxLmCSNntsFlwTzR/KK1
6/8GwD0C7SnIMVLeITf5BkpqYX4dhZ7BuqeYrGXhCO+OHABG/0JFoeeoX7V7G9dl
cCjMYvjTVLG2MwqGoTvGwCOrewhr6AF8MHIbzmXxwgKnlTXomNj9KQr1Ljh8utc+
eC8olb0q+8PCUFYhImfTDhXkZVxH5nyeYoJjMh5/qyucYShr8ThMx7BwnWZhq4mq
g0vcXl5zKEP6oZUQSz39jPC9gRHfXBSRsMT7F71LhUwunv7gu/iD/UmnTChVopcV
bypZgwt9h2tgFmFFXkRnPVsWmhH7uvFRHys5SHQmm4iK/A==
-----END CERTIFICATE-----
