Certificate:
    Data:
        Version: 3 (0x2)
        Serial Number:
            02:f0:53:07:e2:1f:3c:c7:7c:12:d4:12:e3:96:a1:86
    Signature Algorithm: sha256WithRSAEncryption
        Issuer: C=US, ST=CA, O=Aerospike, Inc., OU=Engineering Test, CN=Chain Signing Cert
        Validity
            Not Before: Mar  1 09:17:25 2017 GMT
            Not After : Feb 28 09:17:25 2021 GMT
        Subject: C=US, ST=CA, O=Aerospike, Inc., OU=Cluster Name Test, CN=bob-cluster-b
        Subject Public Key Info:
            Public Key Algorithm: rsaEncryption
                Public-Key: (2048 bit)
                Modulus:
                    00:f0:7f:31:31:c5:72:ea:a7:60:0a:d5:5d:da:f8:
                    39:1c:fe:3a:ca:13:0e:2a:09:ee:9a:51:b1:33:70:
                    7e:2a:c7:b4:a6:81:bd:a8:6a:34:b9:bc:79:1f:b1:
                    67:cd:a8:f6:05:88:2e:a7:c7:a7:e4:b4:38:89:46:
                    5a:9b:99:93:40:cd:b0:25:bc:8c:9b:a6:e0:da:2f:
                    ce:0a:bd:e3:cd:f0:4a:e0:c4:c4:64:11:d3:34:c8:
                    63:d4:aa:0b:96:c9:e7:59:9b:b3:41:91:5f:83:68:
                    72:b1:3a:25:be:5d:8d:50:6a:bc:54:94:82:e3:3f:
                    21:74:53:7b:25:59:a5:8b:31:93:4b:f8:98:53:ef:
                    b9:15:82:04:31:37:c9:16:04:c5:50:2d:8b:ab:a2:
                    1e:1b:ab:5a:2f:cf:41:31:0a:0f:e1:55:c9:66:ee:
                    2b:db:25:bb:8f:5d:a9:e8:4a:78:05:7e:63:a6:c0:
                    d2:be:7f:00:5f:6c:33:50:00:96:4d:ee:d9:21:ea:
                    72:57:f2:94:9f:3a:7f:cb:a5:31:51:c4:eb:16:53:
                    ed:01:90:e5:55:88:ed:e3:0b:59:eb:36:44:a5:ea:
                    33:0d:40:b2:4d:92:47:34:e8:cc:cf:39:07:58:ad:
                    a1:bb:a7:e7:0e:bc:22:39:5f:dd:75:9c:7a:7a:a3:
                    fa:a7
                Exponent: 65537 (0x10001)
        X509v3 extensions:
            X509v3 Authority Key Identifier: 
                keyid:CE:35:78:D2:B9:17:32:71:07:B9:F5:FC:89:C0:B7:D8:C2:89:A8:31

            X509v3 Subject Key Identifier: 
                E9:44:4A:7B:FE:58:78:83:58:F6:44:49:BD:5F:DC:AF:19:37:6E:53
            X509v3 Key Usage: critical
                Digital Signature, Key Encipherment
            X509v3 Extended Key Usage: 
                TLS Web Server Authentication, TLS Web Client Authentication
            X509v3 CRL Distribution Points: 

                Full Name:
                  URI:http://myhost.com/myca1.crl

                Full Name:
                  URI:http://myhost.com/myca2.crl

            X509v3 Certificate Policies: 
                Policy: 2.16.840.1.114412.1.1
                  CPS: https://myhost.com/CPS
                Policy: 2.23.140.1.2.2

            Authority Information Access: 
                OCSP - URI:http://ocsp.my.host/
                CA Issuers - URI:http://my.ca/ca.html

            X509v3 Basic Constraints: critical
                CA:FALSE
    Signature Algorithm: sha256WithRSAEncryption
         6f:07:fb:27:90:fa:24:23:26:59:9e:22:fd:06:21:2f:89:d4:
         d4:71:95:8b:68:ee:15:c9:f8:24:d5:c4:94:90:d2:ea:49:55:
         95:51:30:a3:b2:ca:68:fe:65:a5:b5:34:c8:d1:55:fe:26:d8:
         f5:ab:f5:89:fc:aa:bb:e3:75:0c:84:c8:d0:e1:7c:b2:e0:92:
         25:ce:73:1f:d6:65:14:f3:78:96:bd:37:cd:c8:5a:28:84:09:
         5a:be:83:d9:06:67:69:d4:40:60:e2:ed:53:60:bc:39:2e:e5:
         6c:49:d9:59:50:03:5c:a2:ec:14:94:49:f7:9b:c5:17:0d:e4:
         25:1f:1d:57:8d:51:12:53:f6:75:e2:25:e5:1c:c1:e8:ad:8e:
         f4:00:b6:d4:09:93:6f:28:3a:5f:a8:da:1c:5a:56:36:cf:06:
         10:3f:20:fa:84:0e:4c:c5:45:4b:d9:bb:6c:a1:5c:df:49:67:
         7c:70:f6:84:d2:d4:0c:18:0e:31:7c:6c:b9:77:2d:1e:96:42:
         db:c2:fd:13:20:3f:fe:d5:87:d7:72:67:38:21:16:ef:2d:11:
         db:e7:30:3f:d6:fb:89:83:54:55:42:e4:f0:7e:0a:d2:a0:20:
         4e:aa:69:1e:71:f3:28:9d:87:c8:95:d3:e6:2c:eb:4b:89:bd:
         f6:bd:43:2a
-----BEGIN CERTIFICATE-----
MIIEzjCCA7agAwIBAgIQAvBTB+IfPMd8EtQS45ahhjANBgkqhkiG9w0BAQsFADBs
MQswCQYDVQQGEwJVUzELMAkGA1UECAwCQ0ExGDAWBgNVBAoMD0Flcm9zcGlrZSwg
SW5jLjEZMBcGA1UECwwQRW5naW5lZXJpbmcgVGVzdDEbMBkGA1UEAwwSQ2hhaW4g
U2lnbmluZyBDZXJ0MB4XDTE3MDMwMTA5MTcyNVoXDTIxMDIyODA5MTcyNVowaDEL
MAkGA1UEBhMCVVMxCzAJBgNVBAgMAkNBMRgwFgYDVQQKDA9BZXJvc3Bpa2UsIElu
Yy4xGjAYBgNVBAsMEUNsdXN0ZXIgTmFtZSBUZXN0MRYwFAYDVQQDDA1ib2ItY2x1
c3Rlci1iMIIBIjANBgkqhkiG9w0BAQEFAAOCAQ8AMIIBCgKCAQEA8H8xMcVy6qdg
CtVd2vg5HP46yhMOKgnumlGxM3B+Kse0poG9qGo0ubx5H7Fnzaj2BYgup8en5LQ4
iUZam5mTQM2wJbyMm6bg2i/OCr3jzfBK4MTEZBHTNMhj1KoLlsnnWZuzQZFfg2hy
sTolvl2NUGq8VJSC4z8hdFN7JVmlizGTS/iYU++5FYIEMTfJFgTFUC2Lq6IeG6ta
L89BMQoP4VXJZu4r2yW7j12p6Ep4BX5jpsDSvn8AX2wzUACWTe7ZIepyV/KUnzp/
y6UxUcTrFlPtAZDlVYjt4wtZ6zZEpeozDUCyTZJHNOjMzzkHWK2hu6fnDrwiOV/d
dZx6eqP6pwIDAQABo4IBbjCCAWowHwYDVR0jBBgwFoAUzjV40rkXMnEHufX8icC3
2MKJqDEwHQYDVR0OBBYEFOlESnv+WHiDWPZESb1f3K8ZN25TMA4GA1UdDwEB/wQE
AwIFoDAdBgNVHSUEFjAUBggrBgEFBQcDAQYIKwYBBQUHAwIwTwYDVR0fBEgwRjAh
oB+gHYYbaHR0cDovL215aG9zdC5jb20vbXljYTEuY3JsMCGgH6AdhhtodHRwOi8v
bXlob3N0LmNvbS9teWNhMi5jcmwwRgYDVR0gBD8wPTAxBglghkgBhv1sAQEwJDAi
BggrBgEFBQcCARYWaHR0cHM6Ly9teWhvc3QuY29tL0NQUzAIBgZngQwBAgIwUgYI
KwYBBQUHAQEERjBEMCAGCCsGAQUFBzABhhRodHRwOi8vb2NzcC5teS5ob3N0LzAg
BggrBgEFBQcwAoYUaHR0cDovL215LmNhL2NhLmh0bWwwDAYDVR0TAQH/BAIwADAN
BgkqhkiG9w0BAQsFAAOCAQEAbwf7J5D6JCMmWZ4i/QYhL4nU1HGVi2juFcn4JNXE
lJDS6klVlVEwo7LKaP5lpbU0yNFV/ibY9av1ifyqu+N1DITI0OF8suCSJc5zH9Zl
FPN4lr03zchaKIQJWr6D2QZnadRAYOLtU2C8OS7lbEnZWVADXKLsFJRJ95vFFw3k
JR8dV41RElP2deIl5RzB6K2O9AC21AmTbyg6X6jaHFpWNs8GED8g+oQOTMVFS9m7
bKFc30lnfHD2hNLUDBgOMXxsuXctHpZC28L9EyA//tWH13JnOCEW7y0R2+cwP9b7
iYNUVULk8H4K0qAgTqppHnHzKJ2HyJXT5izrS4m99r1DKg==
-----END CERTIFICATE-----
Certificate:
    Data:
        Version: 3 (0x2)
        Serial Number:
            7f:da:44:82:88:ad:3b:c6:d8:0c:59:84:2d:88:13:dc
    Signature Algorithm: sha256WithRSAEncryption
        Issuer: C=US, ST=CA, L=Mountain View, O=Aerospike, Inc., OU=Engineering Test, CN=Root CA
        Validity
            Not Before: Mar  1 09:17:24 2017 GMT
            Not After : Feb 28 09:17:24 2021 GMT
        Subject: C=US, ST=CA, O=Aerospike, Inc., OU=Engineering Test, CN=Chain Signing Cert
        Subject Public Key Info:
            Public Key Algorithm: rsaEncryption
                Public-Key: (2048 bit)
                Modulus:
                    00:a4:43:b5:7e:d8:8c:6d:e5:d2:e6:37:8f:b0:05:
                    f3:52:4f:5b:58:c3:82:ff:18:bb:a0:41:0a:1d:58:
                    5e:78:ed:58:a6:09:52:7c:64:2f:0e:2e:05:d8:49:
                    2b:00:72:e1:37:8b:94:06:c5:46:2b:5f:43:3d:c3:
                    4a:64:d3:93:1e:45:69:10:70:f7:10:76:da:84:0b:
                    bc:bd:7f:5b:07:fd:e1:e1:91:29:c8:b5:07:97:b9:
                    fd:1f:60:7f:a9:b3:e6:31:ef:e5:02:79:8b:89:9d:
                    9a:31:71:7e:f8:44:0d:9f:70:ea:60:5a:d8:6d:df:
                    35:73:f1:0e:6b:ce:b7:9b:c7:c8:76:ed:38:99:9f:
                    10:09:3c:7a:80:36:96:38:e0:38:a4:6c:0f:32:c4:
                    10:85:9e:9b:3f:ed:17:ed:b1:d5:e0:28:ae:0e:0c:
                    24:17:c0:d8:9a:97:c4:1a:b0:81:36:a1:57:fd:d6:
                    e3:85:a3:c6:a0:8d:a1:7d:4e:65:a3:52:a6:09:0e:
                    38:a9:06:b7:df:43:43:81:f7:b1:a4:ec:34:be:d3:
                    4f:c7:2d:a1:2d:3f:9a:2f:3a:e6:87:10:16:11:19:
                    69:44:00:27:ba:f3:64:f7:d7:15:1b:75:9f:1e:57:
                    97:52:be:53:f1:41:98:2f:f8:d9:2e:96:03:8a:6a:
                    5f:4f
                Exponent: 65537 (0x10001)
        X509v3 extensions:
            X509v3 Basic Constraints: critical
                CA:TRUE, pathlen:0
            X509v3 Key Usage: critical
                Digital Signature, Key Encipherment, Certificate Sign, CRL Sign
            X509v3 Extended Key Usage: 
                TLS Web Server Authentication, TLS Web Client Authentication
            Authority Information Access: 
                OCSP - URI:http://ocsp.my.host/

            X509v3 CRL Distribution Points: 

                Full Name:
                  URI:http://myhost.com/myca.crl

            X509v3 Certificate Policies: 
                Policy: X509v3 Any Policy
                  CPS: https://myhost.com/CPS

            X509v3 Subject Key Identifier: 
                CE:35:78:D2:B9:17:32:71:07:B9:F5:FC:89:C0:B7:D8:C2:89:A8:31
            X509v3 Authority Key Identifier: 
                keyid:64:AC:C8:9B:D4:CD:17:AA:5A:E3:41:6E:21:E4:CD:E4:39:AC:8F:1E

    Signature Algorithm: sha256WithRSAEncryption
         02:35:01:06:75:8b:29:2f:fc:86:04:ba:a8:6e:47:52:4c:9e:
         f5:53:52:05:7a:3b:36:46:8a:32:d9:6e:c8:90:26:39:b8:a2:
         e0:20:34:7d:eb:1a:8e:1e:29:d6:79:d4:44:ae:80:2c:f7:2e:
         33:8e:ad:b6:6d:44:f7:86:fc:a3:38:65:8f:d8:a3:df:5a:e5:
         4c:f7:39:65:1c:26:69:72:e7:25:57:ca:e9:fb:be:fe:bd:bd:
         84:bf:3e:64:82:b1:01:13:e0:ec:2d:af:67:39:a9:0e:d3:7b:
         68:8c:39:d3:9c:88:b6:42:db:62:97:8f:7d:f3:d3:31:6b:00:
         c8:cf:7f:11:14:14:a8:cb:75:f2:61:2c:ca:e7:3a:fe:7a:bc:
         9c:46:5d:ee:8f:9f:bc:0e:56:52:df:98:3e:b4:1a:05:58:0a:
         a3:ec:c9:06:5c:fb:0e:43:26:78:d0:b9:e0:65:bd:e8:cf:56:
         3e:2b:68:08:9a:ff:0f:20:69:63:3d:b5:4a:fc:03:92:dc:5f:
         97:2e:1e:10:2c:21:1b:73:b6:70:e3:2f:85:1d:f6:61:5b:e7:
         3f:b9:11:72:a3:71:3e:c4:d1:85:58:44:e9:cd:26:e4:e5:02:
         ed:9b:83:14:17:a6:0d:e7:9c:bc:1e:26:4c:da:ea:30:29:e3:
         8f:17:f9:c6
-----BEGIN CERTIFICATE-----
MIIEkDCCA3igAwIBAgIQf9pEgoitO8bYDFmELYgT3DANBgkqhkiG9w0BAQsFADB5
MQswCQYDVQQGEwJVUzELMAkGA1UECAwCQ0ExFjAUBgNVBAcMDU1vdW50YWluIFZp
ZXcxGDAWBgNVBAoMD0Flcm9zcGlrZSwgSW5jLjEZMBcGA1UECwwQRW5naW5lZXJp
bmcgVGVzdDEQMA4GA1UEAwwHUm9vdCBDQTAeFw0xNzAzMDEwOTE3MjRaFw0yMTAy
MjgwOTE3MjRaMGwxCzAJBgNVBAYTAlVTMQswCQYDVQQIDAJDQTEYMBYGA1UECgwP
QWVyb3NwaWtlLCBJbmMuMRkwFwYDVQQLDBBFbmdpbmVlcmluZyBUZXN0MRswGQYD
VQQDDBJDaGFpbiBTaWduaW5nIENlcnQwggEiMA0GCSqGSIb3DQEBAQUAA4IBDwAw
ggEKAoIBAQCkQ7V+2Ixt5dLmN4+wBfNST1tYw4L/GLugQQodWF547VimCVJ8ZC8O
LgXYSSsAcuE3i5QGxUYrX0M9w0pk05MeRWkQcPcQdtqEC7y9f1sH/eHhkSnItQeX
uf0fYH+ps+Yx7+UCeYuJnZoxcX74RA2fcOpgWtht3zVz8Q5rzrebx8h27TiZnxAJ
PHqANpY44DikbA8yxBCFnps/7RftsdXgKK4ODCQXwNial8QasIE2oVf91uOFo8ag
jaF9TmWjUqYJDjipBrffQ0OB97Gk7DS+00/HLaEtP5ovOuaHEBYRGWlEACe682T3
1xUbdZ8eV5dSvlPxQZgv+NkulgOKal9PAgMBAAGjggEfMIIBGzASBgNVHRMBAf8E
CDAGAQH/AgEAMA4GA1UdDwEB/wQEAwIBpjAdBgNVHSUEFjAUBggrBgEFBQcDAQYI
KwYBBQUHAwIwMAYIKwYBBQUHAQEEJDAiMCAGCCsGAQUFBzABhhRodHRwOi8vb2Nz
cC5teS5ob3N0LzArBgNVHR8EJDAiMCCgHqAchhpodHRwOi8vbXlob3N0LmNvbS9t
eWNhLmNybDA3BgNVHSAEMDAuMCwGBFUdIAAwJDAiBggrBgEFBQcCARYWaHR0cHM6
Ly9teWhvc3QuY29tL0NQUzAdBgNVHQ4EFgQUzjV40rkXMnEHufX8icC32MKJqDEw
HwYDVR0jBBgwFoAUZKzIm9TNF6pa40FuIeTN5Dmsjx4wDQYJKoZIhvcNAQELBQAD
ggEBAAI1AQZ1iykv/IYEuqhuR1JMnvVTUgV6OzZGijLZbsiQJjm4ouAgNH3rGo4e
KdZ51ESugCz3LjOOrbZtRPeG/KM4ZY/Yo99a5Uz3OWUcJmly5yVXyun7vv69vYS/
PmSCsQET4Owtr2c5qQ7Te2iMOdOciLZC22KXj33z0zFrAMjPfxEUFKjLdfJhLMrn
Ov56vJxGXe6Pn7wOVlLfmD60GgVYCqPsyQZc+w5DJnjQueBlvejPVj4raAia/w8g
aWM9tUr8A5LcX5cuHhAsIRtztnDjL4Ud9mFb5z+5EXKjcT7E0YVYROnNJuTlAu2b
gxQXpg3nnLweJkza6jAp448X+cY=
-----END CERTIFICATE-----
