Certificate:
    Data:
        Version: 3 (0x2)
        Serial Number:
            94:e6:78:33:a2:3d:7a:8e:8e:c5:89:73:e3:2b:87:8f
    Signature Algorithm: sha256WithRSAEncryption
        Issuer: C=US, ST=CA, O=Aerospike, Inc., OU=Engineering Test, CN=Chain Signing Cert
        Validity
            Not Before: Mar  1 09:17:25 2017 GMT
            Not After : Feb 28 09:17:25 2021 GMT
        Subject: C=US, ST=CA, O=Aerospike, Inc., OU=Cluster Name Test, CN=bob-cluster-a
        Subject Public Key Info:
            Public Key Algorithm: rsaEncryption
                Public-Key: (2048 bit)
                Modulus:
                    00:aa:bf:c6:4b:a1:e4:d5:15:f0:25:b1:99:f2:ad:
                    24:d4:e0:7c:7f:f8:c7:91:63:eb:09:15:9d:d2:25:
                    00:3b:cf:26:20:f0:ac:51:65:6f:d1:0b:93:d7:9c:
                    b8:ab:1a:2b:3d:50:d5:fd:1e:45:43:e3:34:3d:c8:
                    49:d7:63:81:75:6a:68:00:f8:6a:d6:5e:d5:f2:01:
                    db:08:ae:ff:9b:0f:cf:dc:83:16:c6:7a:77:73:af:
                    68:38:6d:36:e5:4c:a5:84:d6:13:a1:a0:4d:7d:cc:
                    f6:c3:da:f0:9a:23:aa:6a:89:ed:eb:d4:60:03:29:
                    04:34:07:53:20:50:eb:12:da:c3:87:d1:3d:02:a5:
                    91:e2:3b:22:fc:fa:59:52:3c:16:4a:cf:1a:58:16:
                    d6:3a:e4:07:99:67:eb:34:c6:19:51:8d:8c:43:9c:
                    02:b7:b0:74:37:f5:0d:2c:44:90:1d:c0:c5:b1:f1:
                    9c:c6:e4:90:82:fc:4d:8c:8d:ec:be:ae:61:60:cb:
                    80:57:6a:ba:ce:08:2a:d1:96:eb:2b:5b:9a:f2:2d:
                    12:60:1f:b5:a0:40:bf:e8:dd:57:82:76:fa:ba:14:
                    df:d6:71:9a:16:0d:db:82:19:41:10:d6:47:23:1c:
                    7d:15:2b:7e:a8:f3:dd:67:39:dc:bf:99:2b:3d:d0:
                    ec:1b
                Exponent: 65537 (0x10001)
        X509v3 extensions:
            X509v3 Authority Key Identifier: 
                keyid:CE:35:78:D2:B9:17:32:71:07:B9:F5:FC:89:C0:B7:D8:C2:89:A8:31

            X509v3 Subject Key Identifier: 
                BE:A6:40:CB:B7:0A:4E:E5:57:9D:6D:2D:BA:BD:6F:B2:97:B3:65:74
            X509v3 Key Usage: critical
                Digital Signature, Key Encipherment
            X509v3 Extended Key Usage: 
                TLS Web Server Authentication, TLS Web Client Authentication
            X509v3 CRL Distribution Points: 

                Full Name:
                  URI:http://myhost.com/myca1.crl

                Full Name:
                  URI:http://myhost.com/myca2.crl

            X509v3 Certificate Policies: 
                Policy: 2.16.840.1.114412.1.1
                  CPS: https://myhost.com/CPS
                Policy: 2.23.140.1.2.2

            Authority Information Access: 
                OCSP - URI:http://ocsp.my.host/
                CA Issuers - URI:http://my.ca/ca.html

            X509v3 Basic Constraints: critical
                CA:FALSE
    Signature Algorithm: sha256WithRSAEncryption
         0e:8f:21:d9:17:8b:7d:86:93:4a:9c:f9:9e:f5:0d:5c:36:6c:
         a1:a9:e2:8d:9a:5f:20:a7:c5:49:6e:f8:bc:5d:92:35:a6:63:
         a4:da:94:01:f5:21:f4:83:32:b5:10:1c:bf:2e:6d:ac:df:96:
         35:ef:34:b3:59:9a:cb:9d:f2:8c:1d:fd:43:d7:ba:db:94:c3:
         eb:0a:4e:04:70:5f:f4:ec:3b:3b:2c:96:3e:ce:3e:bb:ed:2c:
         63:b5:8e:cb:ca:17:a2:6f:36:e5:cd:a4:44:b7:06:01:d5:0a:
         72:55:6f:fe:31:f6:2a:4c:6c:29:39:d8:3b:30:d8:70:6a:c7:
         73:8c:4a:05:2e:17:22:a4:c6:e1:a1:97:9f:af:94:12:4f:49:
         03:30:50:2e:cc:fc:c7:e3:a7:af:77:31:fe:fd:f2:fd:de:ee:
         15:a8:1a:68:2c:3a:82:7e:e9:29:06:65:2c:ef:12:d5:92:bd:
         79:e4:5f:95:64:b8:88:9d:c4:52:f8:f3:07:a7:b9:33:69:f0:
         15:d5:98:54:bd:9c:a6:57:ac:60:1c:07:3e:85:73:73:fb:91:
         b6:68:f8:e7:34:0e:70:aa:bd:9e:af:cc:46:d5:a9:eb:3c:9c:
         6d:1d:30:44:1d:4c:3f:b7:50:3a:3a:8c:4a:17:8d:dc:d7:4a:
         6f:1b:c9:28
-----BEGIN CERTIFICATE-----
MIIEzzCCA7egAwIBAgIRAJTmeDOiPXqOjsWJc+Mrh48wDQYJKoZIhvcNAQELBQAw
bDELMAkGA1UEBhMCVVMxCzAJBgNVBAgMAkNBMRgwFgYDVQQKDA9BZXJvc3Bpa2Us
IEluYy4xGTAXBgNVBAsMEEVuZ2luZWVyaW5nIFRlc3QxGzAZBgNVBAMMEkNoYWlu
IFNpZ25pbmcgQ2VydDAeFw0xNzAzMDEwOTE3MjVaFw0yMTAyMjgwOTE3MjVaMGgx
CzAJBgNVBAYTAlVTMQswCQYDVQQIDAJDQTEYMBYGA1UECgwPQWVyb3NwaWtlLCBJ
bmMuMRowGAYDVQQLDBFDbHVzdGVyIE5hbWUgVGVzdDEWMBQGA1UEAwwNYm9iLWNs
dXN0ZXItYTCCASIwDQYJKoZIhvcNAQEBBQADggEPADCCAQoCggEBAKq/xkuh5NUV
8CWxmfKtJNTgfH/4x5Fj6wkVndIlADvPJiDwrFFlb9ELk9ecuKsaKz1Q1f0eRUPj
ND3ISddjgXVqaAD4atZe1fIB2wiu/5sPz9yDFsZ6d3OvaDhtNuVMpYTWE6GgTX3M
9sPa8JojqmqJ7evUYAMpBDQHUyBQ6xLaw4fRPQKlkeI7Ivz6WVI8FkrPGlgW1jrk
B5ln6zTGGVGNjEOcArewdDf1DSxEkB3AxbHxnMbkkIL8TYyN7L6uYWDLgFdqus4I
KtGW6ytbmvItEmAftaBAv+jdV4J2+roU39ZxmhYN24IZQRDWRyMcfRUrfqjz3Wc5
3L+ZKz3Q7BsCAwEAAaOCAW4wggFqMB8GA1UdIwQYMBaAFM41eNK5FzJxB7n1/InA
t9jCiagxMB0GA1UdDgQWBBS+pkDLtwpO5VedbS26vW+yl7NldDAOBgNVHQ8BAf8E
BAMCBaAwHQYDVR0lBBYwFAYIKwYBBQUHAwEGCCsGAQUFBwMCME8GA1UdHwRIMEYw
IaAfoB2GG2h0dHA6Ly9teWhvc3QuY29tL215Y2ExLmNybDAhoB+gHYYbaHR0cDov
L215aG9zdC5jb20vbXljYTIuY3JsMEYGA1UdIAQ/MD0wMQYJYIZIAYb9bAEBMCQw
IgYIKwYBBQUHAgEWFmh0dHBzOi8vbXlob3N0LmNvbS9DUFMwCAYGZ4EMAQICMFIG
CCsGAQUFBwEBBEYwRDAgBggrBgEFBQcwAYYUaHR0cDovL29jc3AubXkuaG9zdC8w
IAYIKwYBBQUHMAKGFGh0dHA6Ly9teS5jYS9jYS5odG1sMAwGA1UdEwEB/wQCMAAw
DQYJKoZIhvcNAQELBQADggEBAA6PIdkXi32Gk0qc+Z71DVw2bKGp4o2aXyCnxUlu
+LxdkjWmY6TalAH1IfSDMrUQHL8ubazfljXvNLNZmsud8owd/UPXutuUw+sKTgRw
X/TsOzsslj7OPrvtLGO1jsvKF6JvNuXNpES3BgHVCnJVb/4x9ipMbCk52Dsw2HBq
x3OMSgUuFyKkxuGhl5+vlBJPSQMwUC7M/Mfjp693Mf798v3e7hWoGmgsOoJ+6SkG
ZSzvEtWSvXnkX5VkuIidxFL48wenuTNp8BXVmFS9nKZXrGAcBz6Fc3P7kbZo+Oc0
DnCqvZ6vzEbVqes8nG0dMEQdTD+3UDo6jEoXjdzXSm8bySg=
-----END CERTIFICATE-----
