Certificate:
    Data:
        Version: 3 (0x2)
        Serial Number:
            a0:60:55:94:f7:44:83:2c:d7:c7:44:d6:2b:de:81:25
    Signature Algorithm: sha256WithRSAEncryption
        Issuer: C=US, ST=CA, O=Aerospike, Inc., OU=Engineering Test, CN=Chain Signing Cert
        Validity
            Not Before: Nov  5 20:06:01 2020 GMT
            Not After : Nov  4 20:06:01 2024 GMT
        Subject: C=US, ST=CA, O=Aerospike, Inc., OU=Cluster Name Test, CN=bob-cluster-a
        Subject Public Key Info:
            Public Key Algorithm: rsaEncryption
                Public-Key: (2048 bit)
                Modulus:
                    00:ea:38:e7:cc:6d:27:61:a8:a4:42:f2:d1:88:f5:
                    a9:4f:bb:27:25:5b:c9:fd:6c:68:09:72:e0:b8:b5:
                    1f:76:ac:3b:49:8d:29:9f:fb:da:15:9f:b3:a8:14:
                    71:6a:dd:e5:ec:7f:e4:7e:ee:38:7b:81:d7:4d:e2:
                    4a:e7:40:e7:f9:d5:f7:e2:f6:18:c1:47:06:96:84:
                    6a:da:89:d8:28:ee:ba:9a:4d:79:fc:3b:41:a6:c7:
                    fe:57:dd:4f:d6:33:4e:54:c2:8c:b6:53:69:11:a5:
                    f2:16:45:3e:4f:15:5c:93:f2:88:ed:6c:5d:cd:87:
                    98:ca:d7:ae:87:b3:45:7a:45:ca:3a:9a:b3:6b:86:
                    53:4d:03:07:51:6f:bc:45:18:36:4b:79:66:78:79:
                    4a:68:39:fc:25:5f:88:b2:c8:fa:f5:cb:5b:a5:d0:
                    8a:6e:92:c4:6a:3c:13:63:91:65:d8:d5:f3:dc:85:
                    e0:7c:da:d7:cb:97:2b:35:15:f0:2e:d8:84:df:b9:
                    c7:8f:a4:1a:7c:d5:20:3e:fc:6d:fe:e8:c0:2a:1f:
                    52:da:d4:85:5d:d2:22:04:ff:fd:10:37:23:a7:ce:
                    32:10:89:68:80:6b:2f:c5:23:76:d0:61:5a:0d:4b:
                    c2:00:a9:a4:db:b5:4e:30:d2:f4:2c:0a:9e:98:12:
                    4f:67
                Exponent: 65537 (0x10001)
        X509v3 extensions:
            X509v3 Authority Key Identifier: 
                keyid:BC:72:1F:3D:E6:B5:5C:BD:B9:2E:98:5E:FD:53:F7:F1:EA:17:70:96

            X509v3 Subject Key Identifier: 
                F0:95:07:CE:83:F0:9E:AA:8E:D8:4C:1B:4B:09:BD:20:9F:D4:71:C9
            X509v3 Key Usage: critical
                Digital Signature, Key Encipherment
            X509v3 Extended Key Usage: 
                TLS Web Server Authentication, TLS Web Client Authentication
            X509v3 CRL Distribution Points: 

                Full Name:
                  URI:http://myhost.com/myca1.crl

                Full Name:
                  URI:http://myhost.com/myca2.crl

            X509v3 Certificate Policies: 
                Policy: 2.16.840.1.114412.1.1
                  CPS: https://myhost.com/CPS
                Policy: 2.23.140.1.2.2

            Authority Information Access: 
                OCSP - URI:http://ocsp.my.host/
                CA Issuers - URI:http://my.ca/ca.html

            X509v3 Basic Constraints: critical
                CA:FALSE
    Signature Algorithm: sha256WithRSAEncryption
         3c:dc:75:16:ad:a1:d3:e9:f8:05:45:4b:5c:1c:79:6b:e5:6d:
         7e:43:ba:62:1a:f9:e0:98:41:ec:ca:ae:a6:3f:cc:c2:81:89:
         cc:47:43:fd:75:b0:a9:85:24:f3:c8:d7:62:7b:1c:66:6a:2a:
         ea:45:e1:f1:d6:b5:ea:46:fa:d9:10:9f:bb:29:06:98:a2:3a:
         e8:78:20:73:55:63:a7:d2:69:a3:e8:82:b2:86:44:1d:e5:6b:
         5b:4b:3d:b5:e2:f0:b7:92:d0:86:53:5e:07:09:54:28:28:9d:
         46:f8:73:f1:a3:f6:4f:00:3d:b1:ec:e7:10:5a:7a:5d:f3:fa:
         b8:88:c1:c2:b5:4b:cd:0d:38:3e:97:e7:ef:18:f2:55:21:77:
         47:02:f7:e8:6f:55:fb:58:48:f5:73:c8:a6:74:f5:e1:a0:35:
         e0:9f:e9:88:3a:c5:ac:a7:d0:11:e7:9f:cb:39:d7:5a:aa:cf:
         c4:98:dc:75:32:b8:98:a4:8f:53:e0:62:ed:62:49:04:2b:27:
         41:58:44:9d:0c:3b:8f:4c:12:98:dc:d0:a8:09:a3:4f:c2:86:
         e0:f8:0c:63:ca:c4:2e:73:fc:58:bf:8e:34:56:44:b9:11:62:
         e4:e7:e7:48:ff:98:21:bf:54:f5:56:91:8f:dc:d1:38:d7:f2:
         08:63:c9:1a
-----BEGIN CERTIFICATE-----
MIIEzzCCA7egAwIBAgIRAKBgVZT3RIMs18dE1ivegSUwDQYJKoZIhvcNAQELBQAw
bDELMAkGA1UEBhMCVVMxCzAJBgNVBAgMAkNBMRgwFgYDVQQKDA9BZXJvc3Bpa2Us
IEluYy4xGTAXBgNVBAsMEEVuZ2luZWVyaW5nIFRlc3QxGzAZBgNVBAMMEkNoYWlu
IFNpZ25pbmcgQ2VydDAeFw0yMDExMDUyMDA2MDFaFw0yNDExMDQyMDA2MDFaMGgx
CzAJBgNVBAYTAlVTMQswCQYDVQQIDAJDQTEYMBYGA1UECgwPQWVyb3NwaWtlLCBJ
bmMuMRowGAYDVQQLDBFDbHVzdGVyIE5hbWUgVGVzdDEWMBQGA1UEAwwNYm9iLWNs
dXN0ZXItYTCCASIwDQYJKoZIhvcNAQEBBQADggEPADCCAQoCggEBAOo458xtJ2Go
pELy0Yj1qU+7JyVbyf1saAly4Li1H3asO0mNKZ/72hWfs6gUcWrd5ex/5H7uOHuB
103iSudA5/nV9+L2GMFHBpaEatqJ2CjuuppNefw7QabH/lfdT9YzTlTCjLZTaRGl
8hZFPk8VXJPyiO1sXc2HmMrXroezRXpFyjqas2uGU00DB1FvvEUYNkt5Znh5Smg5
/CVfiLLI+vXLW6XQim6SxGo8E2ORZdjV89yF4Hza18uXKzUV8C7YhN+5x4+kGnzV
ID78bf7owCofUtrUhV3SIgT//RA3I6fOMhCJaIBrL8UjdtBhWg1LwgCppNu1TjDS
9CwKnpgST2cCAwEAAaOCAW4wggFqMB8GA1UdIwQYMBaAFLxyHz3mtVy9uS6YXv1T
9/HqF3CWMB0GA1UdDgQWBBTwlQfOg/Ceqo7YTBtLCb0gn9RxyTAOBgNVHQ8BAf8E
BAMCBaAwHQYDVR0lBBYwFAYIKwYBBQUHAwEGCCsGAQUFBwMCME8GA1UdHwRIMEYw
IaAfoB2GG2h0dHA6Ly9teWhvc3QuY29tL215Y2ExLmNybDAhoB+gHYYbaHR0cDov
L215aG9zdC5jb20vbXljYTIuY3JsMEYGA1UdIAQ/MD0wMQYJYIZIAYb9bAEBMCQw
IgYIKwYBBQUHAgEWFmh0dHBzOi8vbXlob3N0LmNvbS9DUFMwCAYGZ4EMAQICMFIG
CCsGAQUFBwEBBEYwRDAgBggrBgEFBQcwAYYUaHR0cDovL29jc3AubXkuaG9zdC8w
IAYIKwYBBQUHMAKGFGh0dHA6Ly9teS5jYS9jYS5odG1sMAwGA1UdEwEB/wQCMAAw
DQYJKoZIhvcNAQELBQADggEBADzcdRatodPp+AVFS1wceWvlbX5DumIa+eCYQezK
rqY/zMKBicxHQ/11sKmFJPPI12J7HGZqKupF4fHWtepG+tkQn7spBpiiOuh4IHNV
Y6fSaaPogrKGRB3la1tLPbXi8LeS0IZTXgcJVCgonUb4c/Gj9k8APbHs5xBael3z
+riIwcK1S80NOD6X5+8Y8lUhd0cC9+hvVftYSPVzyKZ09eGgNeCf6Yg6xayn0BHn
n8s511qqz8SY3HUyuJikj1PgYu1iSQQrJ0FYRJ0MO49MEpjc0KgJo0/ChuD4DGPK
xC5z/Fi/jjRWRLkRYuTn50j/mCG/VPVWkY/c0TjX8ghjyRo=
-----END CERTIFICATE-----